(dp0
V\u5ef6
p1
c__builtin__
set
p2
((lp3
V\u8bde
p4
aV\u8712
p5
atp6
Rp7
sg4
g2
((lp8
g5
ag1
atp9
Rp10
sg5
g2
((lp11
g4
ag1
atp12
Rp13
sV\u5944
p14
g2
((lp15
V\u4ffa
p16
aV\u6df9
p17
aV\u63a9
p18
atp19
Rp20
sg18
g2
((lp21
g16
ag17
ag14
atp22
Rp23
sg17
g2
((lp24
g16
ag14
ag18
atp25
Rp26
sg16
g2
((lp27
g17
ag14
ag18
atp28
Rp29
sV\u5f66
p30
g2
((lp31
V\u8c1a
p32
aV\u989c
p33
atp34
Rp35
sg33
g2
((lp36
g30
ag32
atp37
Rp38
sg32
g2
((lp39
g30
ag33
atp40
Rp41
sV\u592e
p42
g2
((lp43
V\u6620
p44
aV\u79e7
p45
aV\u6b83
p46
atp47
Rp48
sg45
g2
((lp49
g44
ag42
ag46
atp50
Rp51
sg44
g2
((lp52
g45
ag42
ag46
atp53
Rp54
sg46
g2
((lp55
g44
ag45
ag42
atp56
Rp57
sV\u626c
p58
g2
((lp59
V\u80a0
p60
aV\u6c64
p61
aV\u573a
p62
aV\u6768
p63
atp64
Rp65
sg63
g2
((lp66
g60
ag61
ag62
ag58
atp67
Rp68
sg61
g2
((lp69
g60
ag62
ag58
ag63
atp70
Rp71
sg62
g2
((lp72
g60
ag61
ag58
ag63
atp73
Rp74
sg60
g2
((lp75
g61
ag62
ag58
ag63
atp76
Rp77
sV\u7f8a
p78
g2
((lp79
V\u7fa4
p80
aV\u6d0b
p81
aV\u6837
p82
aV\u9c9c
p83
aV\u8be6
p84
atp85
Rp86
sg84
g2
((lp87
g78
ag80
ag81
ag82
ag83
atp88
Rp89
sg82
g2
((lp90
g78
ag80
ag81
ag83
ag84
atp91
Rp92
sg81
g2
((lp93
g78
ag80
ag82
ag83
ag84
atp94
Rp95
sg83
g2
((lp96
V\u9cb8
p97
aV\u9ccd
p98
aV\u9c87
p99
aV\u9cc5
p100
aV\u9c7c
p101
atp102
Rp103
sg80
g2
((lp104
V\u88d9
p105
aV\u541b
p106
atp107
Rp108
sV\u592d
p109
g2
((lp110
V\u6c83
p111
aV\u8dc3
p112
aV\u5996
p113
aV\u8884
p114
atp115
Rp116
sg114
g2
((lp117
g111
ag112
ag113
ag109
atp118
Rp119
sg111
g2
((lp120
g112
ag113
ag109
ag114
atp121
Rp122
sg112
g2
((lp123
g111
ag113
ag109
ag114
atp124
Rp125
sg113
g2
((lp126
g111
ag112
ag109
ag114
atp127
Rp128
sV\u5c27
p129
g2
((lp130
V\u6320
p131
aV\u7ed5
p132
aV\u9976
p133
aV\u6d47
p134
aV\u70e7
p135
atp136
Rp137
sg133
g2
((lp138
g131
ag132
ag129
ag134
ag135
atp139
Rp140
sg132
g2
((lp141
g131
ag129
ag133
ag134
ag135
atp142
Rp143
sg134
g2
((lp144
g131
ag132
ag129
ag133
ag135
atp145
Rp146
sg131
g2
((lp147
g132
ag129
ag133
ag134
ag135
atp148
Rp149
sg135
g2
((lp150
V\u708e
p151
aV\u711a
p152
aV\u70e4
p153
aV\u7164
p154
aV\u706b
p155
aV\u707e
p156
atp157
Rp158
sV\u9065
p159
g2
((lp160
V\u8c23
p161
aV\u7476
p162
aV\u6447
p163
atp164
Rp165
sg163
g2
((lp166
g159
ag161
ag162
atp167
Rp168
sg162
g2
((lp169
g159
ag161
ag163
atp170
Rp171
sg161
g2
((lp172
g159
ag162
ag163
atp173
Rp174
sV\u8200
p175
g2
((lp176
V\u8e48
p177
aV\u7a3b
p178
atp179
Rp180
sg178
g2
((lp181
g177
ag175
atp182
Rp183
sg177
g2
((lp184
g178
ag175
atp185
Rp186
sV\u4e5f
p187
g2
((lp188
V\u5f1b
p189
aV\u65bd
p190
aV\u9a70
p191
atp192
Rp193
sg189
g2
((lp194
g187
ag190
ag191
atp195
Rp196
sg191
g2
((lp197
V\u9a71
p198
aV\u9a7c
p199
aV\u9a6e
p200
aV\u5988
p201
aV\u9a6c
p202
aV\u9a82
p203
aV\u5417
p204
atp205
Rp206
sg190
g2
((lp207
g187
ag191
ag189
atp208
Rp209
sV\u9875
p210
g2
((lp211
V\u987d
p212
aV\u9886
p213
aV\u70e6
p214
aV\u987b
p215
aV\u987a
p216
atp217
Rp218
sg212
g2
((lp219
g213
ag214
ag215
ag210
ag216
atp220
Rp221
sg214
g2
((lp222
g212
ag213
ag215
ag210
ag216
atp223
Rp224
sg213
g2
((lp225
V\u73b2
p226
aV\u9f84
p227
aV\u601c
p228
aV\u90bb
p229
aV\u51b7
p230
aV\u94c3
p231
aV\u4f36
p232
aV\u62ce
p233
aV\u5cad
p234
aV\u4ee4
p235
atp236
Rp237
sg216
g2
((lp238
g212
ag213
ag214
ag215
ag210
atp239
Rp240
sg215
g2
((lp241
g212
ag213
ag214
ag210
ag216
atp242
Rp243
sV\u4ea6
p244
g2
((lp245
V\u604b
p246
aV\u5955
p247
aV\u53d8
p248
aV\u5ce6
p249
aV\u5f08
p250
aV\u8ff9
p251
aV\u86ee
p252
atp253
Rp254
sg251
g2
((lp255
g246
ag247
ag248
ag249
ag250
ag244
ag252
atp256
Rp257
sg249
g2
((lp258
g246
ag247
ag248
ag251
ag250
ag244
ag252
atp259
Rp260
sg246
g2
((lp261
g247
ag248
ag249
ag251
ag250
ag244
ag252
atp262
Rp263
sg248
g2
((lp264
g246
ag247
ag249
ag251
ag250
ag244
ag252
atp265
Rp266
sg250
g2
((lp267
g246
ag247
ag248
ag249
ag251
ag244
ag252
atp268
Rp269
sg247
g2
((lp270
g246
ag248
ag249
ag251
ag250
ag244
ag252
atp271
Rp272
sg252
g2
((lp273
g246
ag247
ag248
ag249
ag251
ag250
ag244
atp274
Rp275
sV\u8bd1
p276
g2
((lp277
V\u62e9
p278
aV\u9a7f
p279
aV\u7ece
p280
aV\u6cfd
p281
atp282
Rp283
sg278
g2
((lp284
g279
ag276
ag280
ag281
atp285
Rp286
sg281
g2
((lp287
g278
ag279
ag276
ag280
atp288
Rp289
sg279
g2
((lp290
g278
ag276
ag280
ag281
atp291
Rp292
sg280
g2
((lp293
g278
ag279
ag276
ag281
atp294
Rp295
sV\u6613
p296
g2
((lp297
V\u8d50
p298
aV\u60d5
p299
aV\u9521
p300
aV\u8e22
p301
aV\u5254
p302
atp303
Rp304
sg299
g2
((lp305
g298
ag300
ag301
ag296
ag302
atp306
Rp307
sg301
g2
((lp308
g298
ag299
ag300
ag296
ag302
atp309
Rp310
sg302
g2
((lp311
g298
ag299
ag300
ag301
ag296
atp312
Rp313
sg300
g2
((lp314
g298
ag299
ag301
ag296
ag302
atp315
Rp316
sg298
g2
((lp317
g299
ag300
ag301
ag296
ag302
atp318
Rp319
sV\u6c38
p320
g2
((lp321
V\u8109
p322
aV\u6cf3
p323
aV\u548f
p324
atp325
Rp326
sg324
g2
((lp327
g320
ag322
ag323
atp328
Rp329
sg323
g2
((lp330
g320
ag322
ag324
atp331
Rp332
sg322
g2
((lp333
g320
ag323
ag324
atp334
Rp335
sV\u752c
p336
g2
((lp337
V\u6345
p338
aV\u6876
p339
aV\u75db
p340
aV\u4fd1
p341
aV\u6d8c
p342
aV\u8bf5
p343
aV\u901a
p344
atp345
Rp346
sg344
g2
((lp347
g338
ag336
ag339
ag340
ag341
ag342
ag343
atp348
Rp349
sg340
g2
((lp350
g338
ag336
ag339
ag341
ag342
ag343
ag344
atp351
Rp352
sg339
g2
((lp353
g338
ag336
ag340
ag341
ag342
ag343
ag344
atp354
Rp355
sg343
g2
((lp356
g338
ag336
ag339
ag340
ag341
ag342
ag344
atp357
Rp358
sg338
g2
((lp359
g336
ag339
ag340
ag341
ag342
ag343
ag344
atp360
Rp361
sg341
g2
((lp362
g338
ag336
ag339
ag340
ag342
ag343
ag344
atp363
Rp364
sg342
g2
((lp365
g338
ag336
ag339
ag340
ag341
ag343
ag344
atp366
Rp367
sV\u7528
p368
g2
((lp369
V\u62e5
p370
aV\u4f63
p371
atp372
Rp373
sg370
g2
((lp374
g368
ag371
atp375
Rp376
sg371
g2
((lp377
g368
ag370
atp378
Rp379
sV\u5c24
p380
g2
((lp381
V\u5fe7
p382
aV\u4f18
p383
atp384
Rp385
sg382
g2
((lp386
g383
ag380
atp387
Rp388
sg383
g2
((lp389
g382
ag380
atp390
Rp391
sV\u7531
p392
g2
((lp393
V\u8fea
p394
aV\u67da
p395
aV\u5e99
p396
aV\u8896
p397
aV\u6cb9
p398
aV\u62bd
p399
aV\u90ae
p400
aV\u7b1b
p401
atp402
Rp403
sg394
g2
((lp404
g395
ag396
ag397
ag398
ag399
ag392
ag400
ag401
atp405
Rp406
sg401
g2
((lp407
g394
ag395
ag396
ag397
ag398
ag399
ag392
ag400
atp408
Rp409
sg398
g2
((lp410
g394
ag395
ag396
ag397
ag399
ag392
ag400
ag401
atp411
Rp412
sg400
g2
((lp413
g394
ag395
ag396
ag397
ag398
ag399
ag392
ag401
atp414
Rp415
sg399
g2
((lp416
g394
ag395
ag396
ag397
ag398
ag392
ag400
ag401
atp417
Rp418
sg397
g2
((lp419
g394
ag395
ag396
ag398
ag399
ag392
ag400
ag401
atp420
Rp421
sg395
g2
((lp422
g394
ag396
ag397
ag398
ag399
ag392
ag400
ag401
atp423
Rp424
sg396
g2
((lp425
g394
ag395
ag397
ag398
ag399
ag392
ag400
ag401
atp426
Rp427
sV\u9149
p428
g2
((lp429
V\u9189
p430
aV\u9152
p431
aV\u9165
p432
aV\u914d
p433
aV\u916c
p434
aV\u917f
p435
atp436
Rp437
sg431
g2
((lp438
g430
ag433
ag432
ag434
ag435
ag428
atp439
Rp440
sg432
g2
((lp441
g430
ag431
ag433
ag434
ag435
ag428
atp442
Rp443
sg434
g2
((lp444
g430
ag431
ag432
ag433
ag435
ag428
atp445
Rp446
sg430
g2
((lp447
g431
ag432
ag433
ag434
ag435
ag428
atp448
Rp449
sg433
g2
((lp450
g430
ag431
ag432
ag434
ag435
ag428
atp451
Rp452
sg435
g2
((lp453
V\u5a18
p454
aV\u826f
p455
aV\u72fc
p456
atp457
Rp458
sV\u53c8
p459
g2
((lp460
V\u6748
p461
aV\u6743
p462
atp463
Rp464
sg462
g2
((lp465
g459
ag461
atp466
Rp467
sg461
g2
((lp468
g459
ag462
atp469
Rp470
sV\u5e7c
p471
g2
((lp472
V\u5773
p473
aV\u62d7
p474
aV\u7a88
p475
atp476
Rp477
sg475
g2
((lp478
V\u7a74
p479
aV\u7a95
p480
aV\u7a77
p481
aV\u7a7a
p482
aV\u7a98
p483
atp484
Rp485
sg473
g2
((lp486
g475
ag474
ag471
atp487
Rp488
sg474
g2
((lp489
g475
ag473
ag471
atp490
Rp491
sV\u4e8e
p492
g2
((lp493
V\u8fc2
p494
aV\u5401
p495
aV\u5b87
p496
atp497
Rp498
sg496
g2
((lp499
g494
ag492
ag495
atp500
Rp501
sg495
g2
((lp502
g492
ag494
ag496
atp503
Rp504
sg494
g2
((lp505
g492
ag495
ag496
atp506
Rp507
sV\u9980
p508
g2
((lp509
V\u53d9
p510
aV\u6d82
p511
aV\u9014
p512
aV\u5f90
p513
aV\u659c
p514
aV\u9664
p515
atp516
Rp517
sg511
g2
((lp518
g510
ag512
ag513
ag508
ag514
ag515
atp519
Rp520
sg512
g2
((lp521
g510
ag511
ag513
ag508
ag514
ag515
atp522
Rp523
sg514
g2
((lp524
g510
ag511
ag512
ag513
ag508
ag515
atp525
Rp526
sg510
g2
((lp527
g511
ag512
ag513
ag508
ag514
ag515
atp528
Rp529
sg513
g2
((lp530
g510
ag511
ag512
ag508
ag514
ag515
atp531
Rp532
sg515
g2
((lp533
g510
ag511
ag512
ag513
ag508
ag514
atp534
Rp535
sg101
g2
((lp536
g97
ag98
ag99
aV\u9c9c
p537
ag100
atp538
Rp539
sg100
g2
((lp540
V\u79cb
p541
aV\u63ea
p542
aV\u6101
p543
atp544
Rp545
sg98
g2
((lp546
g97
ag99
ag537
ag100
ag101
atp547
Rp548
sg97
g2
((lp549
g98
ag99
ag537
ag100
ag101
atp550
Rp551
sg99
g2
((lp552
g97
ag98
ag537
ag100
ag101
atp553
Rp554
sV\u4fde
p555
g2
((lp556
V\u5077
p557
aV\u6109
p558
aV\u55bb
p559
aV\u745c
p560
aV\u6986
p561
aV\u6108
p562
aV\u8f93
p563
atp564
Rp565
sg558
g2
((lp566
g557
ag559
ag560
ag561
ag562
ag563
ag555
atp567
Rp568
sg563
g2
((lp569
g557
ag558
ag559
ag560
ag561
ag562
ag555
atp570
Rp571
sg562
g2
((lp572
g557
ag558
ag559
ag560
ag561
ag563
ag555
atp573
Rp574
sg561
g2
((lp575
g557
ag558
ag559
ag560
ag562
ag563
ag555
atp576
Rp577
sg559
g2
((lp578
g557
ag558
ag560
ag561
ag562
ag563
ag555
atp579
Rp580
sg557
g2
((lp581
g558
ag559
ag560
ag561
ag562
ag563
ag555
atp582
Rp583
sg560
g2
((lp584
g557
ag558
ag559
ag561
ag562
ag563
ag555
atp585
Rp586
sV\u7fbd
p587
g2
((lp588
V\u7fd8
p589
aV\u7ff1
p590
aV\u7ffb
p591
aV\u7fe9
p592
aV\u7fd4
p593
aV\u7fc5
p594
atp595
Rp596
sg593
g2
((lp597
g589
ag590
ag591
ag592
ag587
ag594
atp598
Rp599
sg592
g2
((lp600
g589
ag590
ag591
ag593
ag587
ag594
atp601
Rp602
sg589
g2
((lp603
g590
ag591
ag592
ag593
ag587
ag594
atp604
Rp605
sg591
g2
((lp606
g589
ag590
ag592
ag593
ag587
ag594
atp607
Rp608
sg594
g2
((lp609
g589
ag590
ag591
ag592
ag593
ag587
atp610
Rp611
sg590
g2
((lp612
g589
ag591
ag592
ag593
ag587
ag594
atp613
Rp614
sV\u96e8
p615
g2
((lp616
V\u96fe
p617
aV\u96f9
p618
aV\u96f7
p619
aV\u970e
p620
aV\u9706
p621
aV\u96ea
p622
aV\u971c
p623
atp624
Rp625
sg620
g2
((lp626
g617
ag615
ag618
ag619
ag621
ag622
ag623
atp627
Rp628
sg617
g2
((lp629
g615
ag618
ag619
ag620
ag621
ag622
ag623
atp630
Rp631
sg619
g2
((lp632
g617
ag615
ag618
ag620
ag621
ag622
ag623
atp633
Rp634
sg622
g2
((lp635
V\u626b
p636
aV\u96ea
p637
aV\u7075
p638
aV\u5bfb
p639
atp640
Rp641
sg623
g2
((lp642
V
p643
aV\u76f8
p644
aV\u6e58
p645
aV\u7bb1
p646
atp647
Rp648
sg621
g2
((lp649
V\u5ef7
p650
aV\u8247
p651
aV\u8713
p652
aV\u633a
p653
aV\u5ead
p654
atp655
Rp656
sg618
g2
((lp657
g617
ag615
ag619
ag620
ag621
ag622
ag623
atp658
Rp659
sV\u807f
p660
g2
((lp661
V\u5f8b
p662
aV\u6d25
p663
atp664
Rp665
sg662
g2
((lp666
g663
ag660
atp667
Rp668
sg663
g2
((lp669
g662
ag660
atp670
Rp671
sV\u5143
p672
g2
((lp673
V\u5b8c
p674
aV\u8fdc
p675
aV\u56ed
p676
aV\u73a9
p677
atp678
Rp679
sg675
g2
((lp680
g674
ag676
ag677
ag672
atp681
Rp682
sg674
g2
((lp683
g675
ag676
ag677
ag672
atp684
Rp685
sg677
g2
((lp686
g674
ag675
ag676
ag672
atp687
Rp688
sg676
g2
((lp689
g674
ag675
ag677
ag672
atp690
Rp691
sV\u5458
p692
g2
((lp693
V\u635f
p694
aV\u9668
p695
atp696
Rp697
sg695
g2
((lp698
g694
ag692
atp699
Rp700
sg694
g2
((lp701
g692
ag695
atp702
Rp703
sV\u539f
p704
g2
((lp705
V\u6e90
p706
aV\u613f
p707
atp708
Rp709
sg707
g2
((lp710
g706
ag704
atp711
Rp712
sg706
g2
((lp713
g707
ag704
atp714
Rp715
sV\u63f4
p716
g2
((lp717
V\u7f13
p718
aV\u6696
p719
atp720
Rp721
sg719
g2
((lp722
g718
ag716
atp723
Rp724
sg718
g2
((lp725
g719
ag716
atp726
Rp727
sV\u7ea6
p728
g2
((lp729
V\u707c
p730
aV\u7684
p731
aV\u52fa
p732
aV\u9493
p733
aV\u8db5
p734
atp735
Rp736
sV\u836f
p737
g2
((lp738
g728
atp739
Rp740
sV\u6708
p741
g2
((lp742
V\u818a
p743
aV\u810a
p744
aV\u80b2
p745
aV\u812f
p746
aV\u80cc
p747
aV\u8093
p748
aV\u670b
p749
atp750
Rp751
sg749
g2
((lp752
g743
ag744
ag745
ag741
ag746
ag747
ag748
atp753
Rp754
sg743
g2
((lp755
V\u6577
p756
aV\u54fa
p757
aV\u8f85
p758
aV\u94fa
p759
aV\u752b
p760
aV\u6355
p761
aV\u812f
p762
aV\u84b2
p763
aV\u640f
p764
atp765
Rp766
sg746
g2
((lp767
g756
ag757
ag758
aV\u818a
p768
ag759
ag760
ag761
ag763
ag764
atp769
Rp770
sg745
g2
((lp771
g743
ag744
ag741
ag746
ag747
ag748
ag749
atp772
Rp773
sg748
g2
((lp774
g743
ag744
ag745
ag741
ag746
ag747
ag749
atp775
Rp776
sg744
g2
((lp777
g743
ag745
ag741
ag746
ag747
ag748
ag749
atp778
Rp779
sg747
g2
((lp780
g743
ag744
ag745
ag741
ag746
ag748
ag749
atp781
Rp782
sV\u4e91
p783
g2
((lp784
V\u8fd0
p785
aV\u52a8
p786
aV\u82b8
p787
aV\u8018
p788
atp789
Rp790
sg787
g2
((lp791
g783
ag785
ag786
ag788
atp792
Rp793
sg786
g2
((lp794
V\u8fb9
p795
aV\u5386
p796
aV\u52ab
p797
aV\u52b1
p798
aV\u529b
p799
atp800
Rp801
sg785
g2
((lp802
g783
ag788
ag786
ag787
atp803
Rp804
sg788
g2
((lp805
g783
ag785
ag786
ag787
atp806
Rp807
sV\u5300
p808
g2
((lp809
V\u94a7
p810
aV\u5747
p811
atp812
Rp813
sg811
g2
((lp814
g810
ag808
atp815
Rp816
sg810
g2
((lp817
g811
ag808
atp818
Rp819
sV\u8d5e
p820
g2
((lp821
V\u6f5c
p822
aV\u66ff
p823
atp824
Rp825
sg823
g2
((lp826
g822
ag820
atp827
Rp828
sg822
g2
((lp829
g820
ag823
atp830
Rp831
sV\u71e5
p832
g2
((lp833
V\u6fa1
p834
aV\u85fb
p835
aV\u8e81
p836
aV\u566a
p837
aV\u64cd
p838
atp839
Rp840
sg838
g2
((lp841
g832
ag834
ag835
ag836
ag837
atp842
Rp843
sg836
g2
((lp844
g832
ag834
ag835
ag837
ag838
atp845
Rp846
sg834
g2
((lp847
g832
ag835
ag836
ag837
ag838
atp848
Rp849
sg837
g2
((lp850
g832
ag834
ag835
ag836
ag838
atp851
Rp852
sg835
g2
((lp853
g832
ag834
ag836
ag837
ag838
atp854
Rp855
sV\u5219
p856
g2
((lp857
V\u4fa7
p858
aV\u6d4b
p859
aV\u94e1
p860
atp861
Rp862
sg859
g2
((lp863
g856
ag858
ag860
atp864
Rp865
sg858
g2
((lp866
g856
ag859
ag860
atp867
Rp868
sg860
g2
((lp869
g856
ag858
ag859
atp870
Rp871
sV\u66fe
p872
g2
((lp873
V\u618e
p874
aV\u589e
p875
aV\u8d60
p876
aV\u50e7
p877
atp878
Rp879
sg875
g2
((lp880
g874
ag872
ag876
ag877
atp881
Rp882
sg876
g2
((lp883
g874
ag872
ag877
ag875
atp884
Rp885
sg877
g2
((lp886
g874
ag872
ag876
ag875
atp887
Rp888
sg874
g2
((lp889
g872
ag876
ag877
ag875
atp890
Rp891
sV\u4e4d
p892
g2
((lp893
V\u70b8
p894
aV\u6628
p895
aV\u4f5c
p896
aV\u8bc8
p897
atp898
Rp899
sg896
g2
((lp900
g892
ag894
ag895
ag897
atp901
Rp902
sg895
g2
((lp903
g892
ag894
ag897
ag896
atp904
Rp905
sg897
g2
((lp906
g892
ag894
ag895
ag896
atp907
Rp908
sg894
g2
((lp909
g892
ag895
ag896
ag897
atp910
Rp911
sV\u8a79
p912
g2
((lp913
V\u77bb
p914
aV\u6a90
p915
atp916
Rp917
sg915
g2
((lp918
g914
ag912
atp919
Rp920
sg914
g2
((lp921
g912
ag915
atp922
Rp923
sV\u65a9
p924
g2
((lp925
V\u5d2d
p926
aV\u6e10
p927
aV\u6682
p928
atp929
Rp930
sg927
g2
((lp931
g926
ag928
ag924
atp932
Rp933
sg926
g2
((lp934
g927
ag928
ag924
atp935
Rp936
sg928
g2
((lp937
g926
ag927
ag924
atp938
Rp939
sV\u5c55
p940
g2
((lp941
V\u78be
p942
aV\u8f97
p943
atp944
Rp945
sg943
g2
((lp946
g942
ag940
atp947
Rp948
sg942
g2
((lp949
g943
ag940
atp950
Rp951
sV\u5360
p952
g2
((lp953
V\u6218
p954
aV\u73b7
p955
aV\u9ecf
p956
aV\u6cbe
p957
aV\u8d34
p958
aV\u7ad9
p959
aV\u7c98
p960
aV\u5e16
p961
atp962
Rp963
sg957
g2
((lp964
g954
ag955
ag956
ag958
ag952
ag960
ag959
ag961
atp965
Rp966
sg960
g2
((lp967
g954
ag955
ag956
ag957
ag958
ag952
ag959
ag961
atp968
Rp969
sg959
g2
((lp970
V\u5783
p971
aV\u62c9
p972
aV\u7b20
p973
aV\u7c92
p974
aV\u6ce3
p975
aV\u7acb
p976
atp977
Rp978
sg954
g2
((lp979
g955
ag956
ag957
ag958
ag952
ag960
ag959
ag961
atp980
Rp981
sg956
g2
((lp982
g954
ag955
ag957
ag958
ag952
ag960
ag959
ag961
atp983
Rp984
sg961
g2
((lp985
g954
ag955
ag957
ag956
ag958
ag952
ag960
ag959
atp986
Rp987
sg958
g2
((lp988
g954
ag955
ag957
ag956
ag952
ag960
ag959
ag961
atp989
Rp990
sg955
g2
((lp991
g954
ag957
ag956
ag958
ag952
ag960
ag959
ag961
atp992
Rp993
sV\u7ae0
p994
g2
((lp995
V\u7350\u5b50
p996
aV\u5f70
p997
aV\u969c
p998
atp999
Rp1000
sg998
g2
((lp1001
g996
ag994
ag997
atp1002
Rp1003
sg997
g2
((lp1004
g994
ag996
ag998
atp1005
Rp1006
sg996
g2
((lp1007
g994
ag997
ag998
atp1008
Rp1009
sV\u53ec
p1010
g2
((lp1011
V\u62db
p1012
aV\u6cbc
p1013
aV\u7167
p1014
atp1015
Rp1016
sg1012
g2
((lp1017
g1010
ag1013
ag1014
atp1018
Rp1019
sg1014
g2
((lp1020
g1012
ag1010
ag1013
atp1021
Rp1022
sg1013
g2
((lp1023
g1012
ag1010
ag1014
atp1024
Rp1025
sV\u5146
p1026
g2
((lp1027
V\u6843
p1028
aV\u6311
p1029
aV\u9003
p1030
aV\u7a95
p1031
atp1032
Rp1033
sg1029
g2
((lp1034
g1028
ag1030
ag1031
ag1026
atp1035
Rp1036
sg1028
g2
((lp1037
g1029
ag1031
ag1030
ag1026
atp1038
Rp1039
sg1031
g2
((lp1040
g479
ag481
ag482
aV\u7a88
p1041
ag483
atp1042
Rp1043
sg1030
g2
((lp1044
g1028
ag1029
ag1031
ag1026
atp1045
Rp1046
sV\u8005
p1047
g2
((lp1048
V\u5835
p1049
aV\u7eea
p1050
aV\u90fd
p1051
aV\u7779
p1052
aV\u6691
p1053
aV\u716e
p1054
aV\u7f72
p1055
aV\u8bf8
p1056
aV\u8d4c
p1057
aV\u8e87
p1058
atp1059
Rp1060
sg1051
g2
((lp1061
g1049
ag1050
ag1056
ag1052
ag1053
ag1054
ag1055
ag1047
ag1057
ag1058
atp1062
Rp1063
sg1054
g2
((lp1064
g1049
ag1050
ag1051
ag1056
ag1053
ag1052
ag1055
ag1047
ag1057
ag1058
atp1065
Rp1066
sg1053
g2
((lp1067
V\u72f8
p1068
aV\u91cc
p1069
aV\u57cb
p1070
aV\u7740
p1071
aV\u7ae5
p1072
aV\u7406
p1073
atp1074
Rp1075
sg1055
g2
((lp1076
g1049
ag1050
ag1051
ag1056
ag1053
ag1054
ag1052
ag1047
ag1057
ag1058
atp1077
Rp1078
sg1058
g2
((lp1079
g1049
ag1050
ag1051
ag1056
ag1052
ag1053
ag1054
ag1055
ag1047
ag1057
atp1080
Rp1081
sg1056
g2
((lp1082
g1049
ag1050
ag1051
ag1052
ag1053
ag1054
ag1055
ag1047
ag1057
ag1058
atp1083
Rp1084
sg1050
g2
((lp1085
g1049
ag1051
ag1056
ag1052
ag1053
ag1054
ag1055
ag1047
ag1057
ag1058
atp1086
Rp1087
sg1057
g2
((lp1088
g1049
ag1050
ag1051
ag1056
ag1052
ag1053
ag1054
ag1055
ag1047
ag1058
atp1089
Rp1090
sg1052
g2
((lp1091
g1049
ag1050
ag1051
ag1056
ag1053
ag1054
ag1055
ag1047
ag1057
ag1058
atp1092
Rp1093
sg1049
g2
((lp1094
g1050
ag1051
ag1056
ag1052
ag1053
ag1054
ag1055
ag1047
ag1057
ag1058
atp1095
Rp1096
sV\u771f
p1097
g2
((lp1098
V\u586b
p1099
aV\u614e
p1100
atp1101
Rp1102
sg1100
g2
((lp1103
g1099
ag1097
atp1104
Rp1105
sg1099
g2
((lp1106
g1100
ag1097
atp1107
Rp1108
sV\u8bca
p1109
g2
((lp1110
V\u73cd
p1111
aV\u8d81
p1112
atp1113
Rp1114
sg1111
g2
((lp1115
g1109
ag1112
atp1116
Rp1117
sg1112
g2
((lp1118
g1109
ag1111
atp1119
Rp1120
sV\u6b63
p1121
g2
((lp1122
V\u8bc1
p1123
aV\u7109
p1124
aV\u75c7\u72b6
p1125
aV\u5f81
p1126
aV\u60e9
p1127
aV\u6b6a
p1128
atp1129
Rp1130
sg1123
g2
((lp1131
g1125
ag1126
ag1121
ag1128
ag1127
ag1124
atp1132
Rp1133
sg1126
g2
((lp1134
g1123
ag1125
ag1121
ag1128
ag1127
ag1124
atp1135
Rp1136
sg1128
g2
((lp1137
g1123
ag1125
ag1126
ag1121
ag1127
ag1124
atp1138
Rp1139
sg1124
g2
((lp1140
g1123
ag1125
ag1126
ag1121
ag1127
ag1128
atp1141
Rp1142
sg1127
g2
((lp1143
g1123
ag1125
ag1126
ag1121
ag1128
ag1124
atp1144
Rp1145
sg1125
g2
((lp1146
g1123
ag1126
ag1121
ag1128
ag1127
ag1124
atp1147
Rp1148
sV\u4e4b
p1149
g2
((lp1150
V\u6cdb
p1151
aV\u4e4f
p1152
aV\u829d
p1153
atp1154
Rp1155
sg1152
g2
((lp1156
V\u6cdb
p1157
aV\u7728
p1158
atp1159
Rp1160
sg1153
g2
((lp1161
g1151
ag1152
ag1149
atp1162
Rp1163
sg1151
g2
((lp1164
V\u4e4f
p1165
ag1158
atp1166
Rp1167
sV\u652f
p1168
g2
((lp1169
V\u9f13
p1170
aV\u5c90\u5c71
p1171
aV\u80a2
p1172
aV\u6280
p1173
aV\u679d
p1174
aV\u6b67
p1175
atp1176
Rp1177
sg1174
g2
((lp1178
g1170
ag1171
ag1172
ag1173
ag1168
ag1175
atp1179
Rp1180
sg1173
g2
((lp1181
g1170
ag1171
ag1172
ag1174
ag1168
ag1175
atp1182
Rp1183
sg1175
g2
((lp1184
g1170
ag1171
ag1172
ag1173
ag1174
ag1168
atp1185
Rp1186
sg1170
g2
((lp1187
g1171
ag1172
ag1173
ag1174
ag1168
ag1175
atp1188
Rp1189
sg1172
g2
((lp1190
g1170
ag1171
ag1173
ag1174
ag1168
ag1175
atp1191
Rp1192
sg1171
g2
((lp1193
g1170
ag1172
ag1173
ag1174
ag1168
ag1175
atp1194
Rp1195
sV\u76f4
p1196
g2
((lp1197
V\u6b96
p1198
aV\u503c
p1199
aV\u7f6e
p1200
aV\u690d
p1201
atp1202
Rp1203
sg1201
g2
((lp1204
g1199
ag1198
ag1196
ag1200
atp1205
Rp1206
sg1199
g2
((lp1207
g1198
ag1196
ag1200
ag1201
atp1208
Rp1209
sg1198
g2
((lp1210
g1199
ag1196
ag1200
ag1201
atp1211
Rp1212
sg1200
g2
((lp1213
g1199
ag1198
ag1196
ag1201
atp1214
Rp1215
sV\u6b62
p1216
g2
((lp1217
V\u5740
p1218
aV\u8dbe
p1219
aV\u803b
p1220
atp1221
Rp1222
sg1218
g2
((lp1223
g1220
ag1216
ag1219
atp1224
Rp1225
sg1219
g2
((lp1226
g1218
ag1216
ag1220
atp1227
Rp1228
sg1220
g2
((lp1229
V\u8054
p1230
aV\u8033
p1231
aV\u9975
p1232
aV\u8038
p1233
aV\u804c
p1234
aV\u8338
p1235
aV\u8058
p1236
atp1237
Rp1238
sV\u53ea
p1239
g2
((lp1240
V\u5e1c
p1241
aV\u8bc6
p1242
aV\u804c
p1243
aV\u67b3
p1244
aV\u7ec7
p1245
atp1246
Rp1247
sg1242
g2
((lp1248
g1241
ag1243
ag1239
ag1244
ag1245
atp1249
Rp1250
sg1245
g2
((lp1251
g1241
ag1242
ag1243
ag1239
ag1244
atp1252
Rp1253
sg1243
g2
((lp1254
g1230
ag1231
ag1232
aV\u803b
p1255
ag1233
ag1235
ag1236
atp1256
Rp1257
sg1244
g2
((lp1258
g1241
ag1242
ag1243
ag1239
ag1245
atp1259
Rp1260
sg1241
g2
((lp1261
g1242
ag1243
ag1239
ag1244
ag1245
atp1262
Rp1263
sV\u81f3
p1264
g2
((lp1265
V\u5012
p1266
aV\u5230
p1267
aV\u4f84
p1268
aV\u7a92
p1269
aV\u81f4
p1270
atp1271
Rp1272
sg1268
g2
((lp1273
g1264
ag1266
ag1267
ag1269
ag1270
atp1274
Rp1275
sg1269
g2
((lp1276
g1264
ag1266
ag1267
ag1268
ag1270
atp1277
Rp1278
sg1266
g2
((lp1279
g1264
ag1267
ag1268
ag1269
ag1270
atp1280
Rp1281
sg1267
g2
((lp1282
g1264
ag1266
ag1268
ag1269
ag1270
atp1283
Rp1284
sg1270
g2
((lp1285
g1264
ag1266
ag1267
ag1268
ag1269
atp1286
Rp1287
sV\u821f
p1288
g2
((lp1289
V\u822a
p1290
aV\u8230
p1291
atp1292
Rp1293
sg1290
g2
((lp1294
g1288
ag1291
atp1295
Rp1296
sg1291
g2
((lp1297
g1288
ag1290
atp1298
Rp1299
sV\u5468
p1300
g2
((lp1301
V\u8c03
p1302
aV\u7a20
p1303
aV\u51cb
p1304
aV\u7ef8
p1305
aV\u96d5
p1306
atp1307
Rp1308
sg1304
g2
((lp1309
g1302
ag1303
ag1300
ag1305
ag1306
atp1310
Rp1311
sg1302
g2
((lp1312
g1302
ag1303
ag1300
ag1304
ag1305
ag1306
atp1313
Rp1314
sg1305
g2
((lp1315
g1303
ag1300
ag1304
ag1302
ag1306
atp1316
Rp1317
sg1306
g2
((lp1318
g1302
ag1303
ag1300
ag1304
ag1305
atp1319
Rp1320
sg1303
g2
((lp1321
g1302
ag1300
ag1304
ag1305
ag1306
atp1322
Rp1323
sV\u6731
p1324
g2
((lp1325
V\u73e0
p1326
aV\u682a
p1327
atp1328
Rp1329
sg1327
g2
((lp1330
g1324
ag1326
atp1331
Rp1332
sg1326
g2
((lp1333
g1324
ag1327
atp1334
Rp1335
sV\u4e3b
p1336
g2
((lp1337
V\u6ce8
p1338
aV\u4f4f
p1339
aV\u67f1
p1340
aV\u5f80
p1341
aV\u9a7b
p1342
atp1343
Rp1344
sg1338
g2
((lp1345
g1339
ag1340
ag1341
ag1342
ag1336
atp1346
Rp1347
sg1341
g2
((lp1348
g1338
ag1339
ag1340
ag1342
ag1336
atp1349
Rp1350
sg1340
g2
((lp1351
g1338
ag1339
ag1341
ag1342
ag1336
atp1352
Rp1353
sg1342
g2
((lp1354
g1338
ag1339
ag1340
ag1341
ag1336
atp1355
Rp1356
sg1339
g2
((lp1357
V\u5806
p1358
aV\u63a8
p1359
aV\u7ef4
p1360
aV\u51c6
p1361
atp1362
Rp1363
sg1360
g2
((lp1364
g1358
ag1359
aV\u4f4f
p1365
ag1361
atp1366
Rp1367
sg1359
g2
((lp1368
g1358
ag1365
ag1360
ag1361
atp1369
Rp1370
sg1358
g2
((lp1371
g1359
ag1365
ag1360
ag1361
atp1372
Rp1373
sg1361
g2
((lp1374
g1358
ag1359
ag1365
ag1360
atp1375
Rp1376
sV\u72b6
p1377
g2
((lp1378
V\u58ee
p1379
aV\u5986
p1380
atp1381
Rp1382
sg1379
g2
((lp1383
g1377
ag1380
atp1384
Rp1385
sg1380
g2
((lp1386
g1379
ag1377
atp1387
Rp1388
sV\u5353
p1389
g2
((lp1390
V\u7ef0
p1391
aV\u6389
p1392
aV\u684c
p1393
aV\u60bc
p1394
atp1395
Rp1396
sg1393
g2
((lp1397
g1391
ag1392
ag1394
ag1389
atp1398
Rp1399
sg1391
g2
((lp1400
g1392
ag1393
ag1394
ag1389
atp1401
Rp1402
sg1394
g2
((lp1403
g1391
ag1392
ag1393
ag1389
atp1404
Rp1405
sg1392
g2
((lp1406
g1391
ag1393
ag1394
ag1389
atp1407
Rp1408
sV\u5179
p1409
g2
((lp1410
V\u78c1
p1411
aV\u6ecb
p1412
aV\u6148
p1413
atp1414
Rp1415
sg1413
g2
((lp1416
g1409
ag1412
ag1411
atp1417
Rp1418
sg1412
g2
((lp1419
g1409
ag1413
ag1411
atp1420
Rp1421
sg1411
g2
((lp1422
g1409
ag1412
ag1413
atp1423
Rp1424
sV\u5b97
p1425
g2
((lp1426
V\u68d5
p1427
aV\u8e2a
p1428
aV\u7efc
p1429
aV\u5d07
p1430
aV\u6dd9
p1431
atp1432
Rp1433
sg1427
g2
((lp1434
g1425
ag1428
ag1429
ag1430
ag1431
atp1435
Rp1436
sg1429
g2
((lp1437
g1425
ag1427
ag1428
ag1430
ag1431
atp1438
Rp1439
sg1428
g2
((lp1440
g1425
ag1427
ag1429
ag1430
ag1431
atp1441
Rp1442
sg1431
g2
((lp1443
g1425
ag1427
ag1428
ag1429
ag1430
atp1444
Rp1445
sg1430
g2
((lp1446
g1425
ag1427
ag1428
ag1429
ag1431
atp1447
Rp1448
sV\u8d70
p1449
g2
((lp1450
V\u8d8a
p1451
aV\u8d9f
p1452
aV\u8d77
p1453
aV\u9661
p1454
aV\u8da3
p1455
aV\u8d8b
p1456
aV\u5f92
p1457
aV\u8d85
p1458
atp1459
Rp1460
sg1455
g2
((lp1461
g1451
ag1452
ag1449
ag1453
ag1454
ag1456
ag1457
ag1458
atp1462
Rp1463
sg1456
g2
((lp1464
g1451
ag1452
ag1449
ag1453
ag1454
ag1455
ag1457
ag1458
atp1465
Rp1466
sg1451
g2
((lp1467
g1452
ag1449
ag1453
ag1454
ag1455
ag1456
ag1457
ag1458
atp1468
Rp1469
sg1453
g2
((lp1470
g1451
ag1452
ag1449
ag1454
ag1455
ag1456
ag1457
ag1458
atp1471
Rp1472
sg1452
g2
((lp1473
V\u5c1a
p1474
aV\u8eba
p1475
aV\u6dcc
p1476
atp1477
Rp1478
sg1458
g2
((lp1479
g1451
ag1452
ag1449
ag1453
ag1454
ag1455
ag1456
ag1457
atp1480
Rp1481
sg1454
g2
((lp1482
g1451
ag1452
ag1449
ag1453
ag1455
ag1456
ag1457
ag1458
atp1483
Rp1484
sg1457
g2
((lp1485
g1451
ag1452
ag1449
ag1453
ag1454
ag1455
ag1456
ag1458
atp1486
Rp1487
sV\u594f
p1488
g2
((lp1489
V\u63cd
p1490
aV\u51d1
p1491
atp1492
Rp1493
sg1491
g2
((lp1494
g1488
ag1490
atp1495
Rp1496
sg1490
g2
((lp1497
g1488
ag1491
atp1498
Rp1499
sV\u5750
p1500
g2
((lp1501
V\u5ea7
p1502
aV\u632b
p1503
atp1504
Rp1505
sg1502
g2
((lp1506
g1500
ag1503
atp1507
Rp1508
sg1503
g2
((lp1509
g1500
ag1502
atp1510
Rp1511
sV\u5434
p1512
g2
((lp1513
V\u5a31
p1514
aV\u8bef
p1515
atp1516
Rp1517
sg1515
g2
((lp1518
g1512
ag1514
atp1519
Rp1520
sg1514
g2
((lp1521
g1512
ag1515
atp1522
Rp1523
sV\u534a
p1524
g2
((lp1525
V\u5224
p1526
aV\u4f34
p1527
aV\u62cc
p1528
aV\u53db
p1529
aV\u7eca
p1530
atp1531
Rp1532
sg1527
g2
((lp1533
g1526
ag1528
ag1524
ag1529
ag1530
atp1534
Rp1535
sg1528
g2
((lp1536
g1526
ag1527
ag1524
ag1529
ag1530
atp1537
Rp1538
sg1530
g2
((lp1539
g1526
ag1527
ag1528
ag1524
ag1529
atp1540
Rp1541
sg1529
g2
((lp1542
g1526
ag1527
ag1528
ag1524
ag1530
atp1543
Rp1544
sg1526
g2
((lp1545
g1527
ag1528
ag1524
ag1529
ag1530
atp1546
Rp1547
sV\u91d1
p1548
g2
((lp1549
V\u9488
p1550
aV\u94dc
p1551
aV\u952e
p1552
aV\u94b1
p1553
aV\u94fe
p1554
atp1555
Rp1556
sg1554
g2
((lp1557
V\u8fde
p1558
aV\u83b2
p1559
atp1560
Rp1561
sg1552
g2
((lp1562
V\u5065
p1563
atp1564
Rp1565
sg1553
g2
((lp1566
V\u7ebf
p1567
aV\u6b8b
p1568
aV\u7b3a
p1569
aV\u8d31
p1570
aV\u6d45
p1571
aV\u8df5
p1572
atp1573
Rp1574
sg1551
g2
((lp1575
g1550
ag1552
ag1553
ag1548
ag1554
atp1576
Rp1577
sg1550
g2
((lp1578
g1551
ag1552
ag1553
ag1548
ag1554
atp1579
Rp1580
sV\u5b5a
p1581
g2
((lp1582
V\u4fd8
p1583
aV\u6d6e
p1584
atp1585
Rp1586
sg1583
g2
((lp1587
g1584
ag1581
atp1588
Rp1589
sg1584
g2
((lp1590
g1583
ag1581
atp1591
Rp1592
sV\u7d2f
p1593
g2
((lp1594
V\u87ba
p1595
aV\u645e
p1596
aV\u9aa1
p1597
atp1598
Rp1599
sg1597
g2
((lp1600
g1595
ag1593
ag1596
atp1601
Rp1602
sg1595
g2
((lp1603
g1593
ag1596
ag1597
atp1604
Rp1605
sg1596
g2
((lp1606
g1595
ag1593
ag1597
atp1607
Rp1608
sg541
g2
((lp1609
g543
aV\u9cc5
p1610
ag542
atp1611
Rp1612
sg543
g2
((lp1613
g541
ag1610
ag542
atp1614
Rp1615
sg542
g2
((lp1616
g541
ag1610
ag543
atp1617
Rp1618
sV\u533a
p1619
g2
((lp1620
V\u9a71
p1621
aV\u6ca4
p1622
aV\u8eaf
p1623
aV\u5c96
p1624
aV\u6b27
p1625
atp1626
Rp1627
sg1625
g2
((lp1628
g1621
ag1622
ag1623
ag1624
ag1619
atp1629
Rp1630
sg1622
g2
((lp1631
g1621
ag1623
ag1624
ag1625
ag1619
atp1632
Rp1633
sg1623
g2
((lp1634
g1621
ag1622
ag1624
ag1625
ag1619
atp1635
Rp1636
sg1621
g2
((lp1637
g199
ag200
ag201
ag202
aV\u9a70
p1638
ag203
ag204
atp1639
Rp1640
sg1624
g2
((lp1641
g1621
ag1622
ag1623
ag1625
ag1619
atp1642
Rp1643
sV\u5c48
p1644
g2
((lp1645
V\u5484
p1646
aV\u6398
p1647
aV\u7b28\u62d9
p1648
aV\u51fa
p1649
aV\u5014
p1650
atp1651
Rp1652
sV\u6398
p1653
g2
((lp1654
g1646
ag1648
ag1649
aV\u5c48
p1655
ag1650
atp1656
Rp1657
sV\u5014
p1658
g2
((lp1659
g1646
ag1647
ag1648
ag1649
ag1655
atp1660
Rp1661
sV\u5203
p1662
g2
((lp1663
V\u5fcd
p1664
aV\u4ede
p1665
atp1666
Rp1667
sg1664
g2
((lp1668
g1662
ag1665
atp1669
Rp1670
sg1665
g2
((lp1671
g1662
ag1664
atp1672
Rp1673
sV\u5bb9
p1674
g2
((lp1675
V\u7194
p1676
aV\u84c9
p1677
aV\u6995
p1678
aV\u6eb6
p1679
atp1680
Rp1681
sg1677
g2
((lp1682
g1676
ag1678
ag1679
ag1674
atp1683
Rp1684
sg1676
g2
((lp1685
g1678
ag1677
ag1679
ag1674
atp1686
Rp1687
sg1679
g2
((lp1688
g1676
ag1677
ag1678
ag1674
atp1689
Rp1690
sg1678
g2
((lp1691
g1676
ag1677
ag1679
ag1674
atp1692
Rp1693
sV\u8d5b
p1694
g2
((lp1695
V\u5bd2
p1696
aV\u585e
p1697
atp1698
Rp1699
sg1697
g2
((lp1700
g1696
ag1694
atp1701
Rp1702
sg1696
g2
((lp1703
g1694
ag1697
atp1704
Rp1705
sg1474
g2
((lp1706
g1475
aV\u8d9f
p1707
ag1476
atp1708
Rp1709
sg1475
g2
((lp1710
g1474
ag1476
ag1707
atp1711
Rp1712
sg1476
g2
((lp1713
g1474
ag1475
ag1707
atp1714
Rp1715
sg732
g2
((lp1716
g730
aV\u7ea6
p1717
ag731
ag733
ag734
atp1718
Rp1719
sg734
g2
((lp1720
g730
ag1717
ag731
ag732
ag733
atp1721
Rp1722
sg733
g2
((lp1723
g730
ag1717
ag731
ag732
ag734
atp1724
Rp1725
sg731
g2
((lp1726
g730
ag1717
ag732
ag733
ag734
atp1727
Rp1728
sg730
g2
((lp1729
g1717
ag731
ag732
ag733
ag734
atp1730
Rp1731
sV\u5c11
p1732
g2
((lp1733
V\u5999
p1734
aV\u6c99
p1735
aV\u6284
p1736
aV\u7eb1
p1737
atp1738
Rp1739
sg1734
g2
((lp1740
g1735
ag1736
ag1732
ag1737
atp1741
Rp1742
sg1737
g2
((lp1743
g1734
ag1735
ag1736
ag1732
atp1744
Rp1745
sg1736
g2
((lp1746
g1734
ag1735
ag1732
ag1737
atp1747
Rp1748
sg1735
g2
((lp1749
g1734
ag1736
ag1732
ag1737
atp1750
Rp1751
sV\u820c
p1752
g2
((lp1753
V\u606c
p1754
aV\u62ec
p1755
aV\u4e71
p1756
aV\u522e
p1757
atp1758
Rp1759
sg1757
g2
((lp1760
g1754
ag1755
ag1756
ag1752
atp1761
Rp1762
sg1756
g2
((lp1763
g1755
ag1757
ag1754
ag1752
atp1764
Rp1765
sg1754
g2
((lp1766
g1755
ag1757
ag1756
ag1752
atp1767
Rp1768
sg1755
g2
((lp1769
g1754
ag1757
ag1756
ag1752
atp1770
Rp1771
sV\u7533
p1772
g2
((lp1773
V\u5764
p1774
aV\u7ec5
p1775
aV\u4f38
p1776
aV\u795e
p1777
atp1778
Rp1779
sg1777
g2
((lp1780
g1772
ag1775
ag1776
ag1774
atp1781
Rp1782
sg1776
g2
((lp1783
g1774
ag1772
ag1775
ag1777
atp1784
Rp1785
sg1774
g2
((lp1786
g1772
ag1775
ag1776
ag1777
atp1787
Rp1788
sg1775
g2
((lp1789
g1774
ag1772
ag1776
ag1777
atp1790
Rp1791
sV\u8eab
p1792
g2
((lp1793
V\u5c04
p1794
aV\u8eb2
p1795
atp1796
Rp1797
sg1794
g2
((lp1798
g1792
ag1795
atp1799
Rp1800
sg1795
g2
((lp1801
g1794
ag1792
atp1802
Rp1803
sV\u751a
p1804
g2
((lp1805
V\u582a
p1806
aV\u6e5b
p1807
aV\u52d8
p1808
aV\u659f
p1809
atp1810
Rp1811
sg1806
g2
((lp1812
g1804
ag1807
ag1808
ag1809
atp1813
Rp1814
sg1809
g2
((lp1815
V\u6597
p1816
aV\u6296
p1817
aV\u6599
p1818
aV\u9b41
p1819
aV\u79d1
p1820
atp1821
Rp1822
sg1808
g2
((lp1823
g1804
ag1806
ag1807
ag1809
atp1824
Rp1825
sg1807
g2
((lp1826
g1804
ag1806
ag1808
ag1809
atp1827
Rp1828
sV\u751f
p1829
g2
((lp1830
V\u6027
p1831
aV\u661f
p1832
aV\u59d3
p1833
atp1834
Rp1835
sg1831
g2
((lp1836
g1833
ag1832
ag1829
atp1837
Rp1838
sg1833
g2
((lp1839
g1831
ag1832
ag1829
atp1840
Rp1841
sg1832
g2
((lp1842
g1831
ag1833
ag1829
atp1843
Rp1844
sV\u8c55
p1845
g2
((lp1846
V\u9010
p1847
aV\u5544
p1848
aV\u7422
p1849
atp1850
Rp1851
sg1847
g2
((lp1852
g1848
ag1845
ag1849
atp1853
Rp1854
sg1849
g2
((lp1855
g1848
ag1847
ag1845
atp1856
Rp1857
sg1848
g2
((lp1858
g1847
ag1845
ag1849
atp1859
Rp1860
sV\u6c0f
p1861
g2
((lp1862
V\u4f4e
p1863
aV\u5e95
p1864
aV\u7eb8
p1865
aV\u62b5
p1866
atp1867
Rp1868
sg1865
g2
((lp1869
g1863
ag1864
ag1861
ag1866
atp1870
Rp1871
sg1863
g2
((lp1872
g1864
ag1861
ag1865
ag1866
atp1873
Rp1874
sg1864
g2
((lp1875
g1863
ag1861
ag1865
ag1866
atp1876
Rp1877
sg1866
g2
((lp1878
g1863
ag1864
ag1861
ag1865
atp1879
Rp1880
sV\u4e16
p1881
g2
((lp1882
V\u8776
p1883
aV\u5c49
p1884
aV\u6cc4
p1885
aV\u789f
p1886
atp1887
Rp1888
sg1884
g2
((lp1889
g1883
ag1881
ag1885
ag1886
atp1890
Rp1891
sg1885
g2
((lp1892
g1883
ag1884
ag1881
ag1886
atp1893
Rp1894
sg1883
g2
((lp1895
g1884
ag1881
ag1885
ag1886
atp1896
Rp1897
sg1886
g2
((lp1898
g1883
ag1884
ag1881
ag1885
atp1899
Rp1900
sV\u5e02
p1901
g2
((lp1902
V\u95f9
p1903
aV\u67ff
p1904
atp1905
Rp1906
sg1903
g2
((lp1907
g1901
ag1904
atp1908
Rp1909
sg1904
g2
((lp1910
g1901
ag1903
atp1911
Rp1912
sV\u793a
p1913
g2
((lp1914
V\u6807
p1915
aV\u796d
p1916
aV\u7968
p1917
atp1918
Rp1919
sg1915
g2
((lp1920
g1913
ag1916
ag1917
atp1921
Rp1922
sg1916
g2
((lp1923
g1915
ag1913
ag1917
atp1924
Rp1925
sg1917
g2
((lp1926
V\u8198
p1927
aV\u98d8
p1928
aV\u6f02
p1929
atp1930
Rp1931
sV\u5f0f
p1932
g2
((lp1933
V\u8bd5
p1934
aV\u62ed
p1935
atp1936
Rp1937
sg1935
g2
((lp1938
g1932
ag1934
atp1939
Rp1940
sg1934
g2
((lp1941
g1932
ag1935
atp1942
Rp1943
sV\u662f
p1944
g2
((lp1945
V\u9898
p1946
aV\u5824
p1947
aV\u63d0
p1948
atp1949
Rp1950
sg1948
g2
((lp1951
g1946
ag1944
ag1947
atp1952
Rp1953
sg1946
g2
((lp1954
g1944
ag1947
ag1948
atp1955
Rp1956
sg1947
g2
((lp1957
g1946
ag1944
ag1948
atp1958
Rp1959
sV\u5bff
p1960
g2
((lp1961
V\u7b79
p1962
aV\u94f8
p1963
aV\u8e0c
p1964
aV\u6d9b
p1965
aV\u7977
p1966
atp1967
Rp1968
sg1965
g2
((lp1969
g1962
ag1964
ag1963
ag1960
ag1966
atp1970
Rp1971
sg1966
g2
((lp1972
g1962
ag1964
ag1963
ag1960
ag1965
atp1973
Rp1974
sg1964
g2
((lp1975
g1962
ag1963
ag1960
ag1965
ag1966
atp1976
Rp1977
sg1962
g2
((lp1978
g1964
ag1963
ag1960
ag1965
ag1966
atp1979
Rp1980
sg1963
g2
((lp1981
g1962
ag1964
ag1960
ag1965
ag1966
atp1982
Rp1983
sV\u6bb3
p1984
g2
((lp1985
V\u80a1
p1986
aV\u6ca1
p1987
aV\u6295
p1988
aV\u8bbe
p1989
aV\u822c
p1990
aV\u5f79
p1991
atp1992
Rp1993
sg1986
g2
((lp1994
g1987
ag1988
ag1989
ag1990
ag1991
ag1984
atp1995
Rp1996
sg1991
g2
((lp1997
g1986
ag1987
ag1988
ag1989
ag1990
ag1984
atp1998
Rp1999
sg1988
g2
((lp2000
g1986
ag1987
ag1989
ag1990
ag1991
ag1984
atp2001
Rp2002
sg1987
g2
((lp2003
g1986
ag1988
ag1989
ag1990
ag1991
ag1984
atp2004
Rp2005
sg1990
g2
((lp2006
g1986
ag1987
ag1988
ag1989
ag1991
ag1984
atp2007
Rp2008
sg1989
g2
((lp2009
g1986
ag1987
ag1988
ag1990
ag1991
ag1984
atp2010
Rp2011
sV\u53d4
p2012
g2
((lp2013
V\u6dd1
p2014
aV\u7763
p2015
aV\u6912
p2016
atp2017
Rp2018
sg2014
g2
((lp2019
g2012
ag2015
ag2016
atp2020
Rp2021
sg2016
g2
((lp2022
g2012
ag2014
ag2015
atp2023
Rp2024
sg2015
g2
((lp2025
g2012
ag2014
ag2016
atp2026
Rp2027
sV\u65af
p2028
g2
((lp2029
V\u65d7
p2030
aV\u671f
p2031
aV\u6b3a
p2032
aV\u5176
p2033
atp2034
Rp2035
sV\u6495
p2036
g2
((lp2037
g2028
aV\u53ae
p2038
aV\u5636
p2039
atp2040
Rp2041
sg2039
g2
((lp2042
g2028
ag2038
ag2036
atp2043
Rp2044
sg2038
g2
((lp2045
g2028
ag2039
ag2036
atp2046
Rp2047
sV\u5bfa
p2048
g2
((lp2049
V\u5f85
p2050
aV\u7b49
p2051
aV\u8bd7
p2052
aV\u4f8d
p2053
aV\u6043 \u5cd9
p2054
aV\u6301
p2055
aV\u7279 
p2056
atp2057
Rp2058
sg2055
g2
((lp2059
g2050
ag2051
ag2052
ag2053
ag2054
ag2048
ag2056
atp2060
Rp2061
sg2051
g2
((lp2062
g2050
ag2052
ag2053
ag2054
ag2055
ag2048
ag2056
atp2063
Rp2064
sg2050
g2
((lp2065
g2051
ag2052
ag2053
ag2054
ag2055
ag2048
ag2056
atp2066
Rp2067
sg2052
g2
((lp2068
g2050
ag2051
ag2053
ag2054
ag2055
ag2048
ag2056
atp2069
Rp2070
sg2053
g2
((lp2071
g2050
ag2051
ag2052
ag2054
ag2055
ag2048
ag2056
atp2072
Rp2073
sg2056
g2
((lp2074
g2050
ag2051
ag2052
ag2053
ag2054
ag2055
ag2048
atp2075
Rp2076
sg2054
g2
((lp2077
g2050
ag2051
ag2052
ag2053
ag2055
ag2048
ag2056
atp2078
Rp2079
sV\u5802
p2080
g2
((lp2081
g643
aV\u819b
p2082
aV\u77a0
p2083
atp2084
Rp2085
sg2083
g2
((lp2086
g643
ag2082
ag2080
atp2087
Rp2088
sg2082
g2
((lp2089
g643
ag2083
ag2080
atp2090
Rp2091
sg643
g2
((lp2092
g644
ag645
aV\u971c
p2093
ag646
atp2094
Rp2095
sg650
g2
((lp2096
g650
ag651
ag652
aV\u9706
p2097
ag653
ag654
atp2098
Rp2099
sg653
g2
((lp2100
g650
ag651
ag652
ag2097
ag654
atp2101
Rp2102
sg654
g2
((lp2103
g650
ag651
ag652
ag2097
ag653
atp2104
Rp2105
sg651
g2
((lp2106
g650
ag652
ag2097
ag653
ag654
atp2107
Rp2108
sg652
g2
((lp2109
g650
ag651
ag2097
ag653
ag654
atp2110
Rp2111
sV\u7ae5
p2112
g2
((lp2113
g1068
ag1069
ag1070
aV\u6691
p2114
ag1071
ag1073
atp2115
Rp2116
sV\u5e62
p2117
g2
((lp2118
V\u649e
p2119
aV\u61a7
p2120
ag2112
atp2121
Rp2122
sg2120
g2
((lp2123
g2119
ag2117
ag2112
atp2124
Rp2125
sg2119
g2
((lp2126
g2117
ag2120
ag2112
atp2127
Rp2128
sV\u5b9b
p2129
g2
((lp2130
V\u8155
p2131
aV\u873f
p2132
aV\u5a49
p2133
aV\u7897
p2134
atp2135
Rp2136
sg2134
g2
((lp2137
g2131
ag2132
ag2129
ag2133
atp2138
Rp2139
sg2133
g2
((lp2140
g2131
ag2132
ag2129
ag2134
atp2141
Rp2142
sg2131
g2
((lp2143
g2132
ag2129
ag2133
ag2134
atp2144
Rp2145
sg2132
g2
((lp2146
g2131
ag2129
ag2133
ag2134
atp2147
Rp2148
sV\u4ea1
p2149
g2
((lp2150
V\u5fd9
p2151
aV\u867b
p2152
aV\u8292
p2153
atp2154
Rp2155
sg2151
g2
((lp2156
g2149
ag2153
ag2152
atp2157
Rp2158
sg2153
g2
((lp2159
g2149
ag2151
ag2152
atp2160
Rp2161
sg2152
g2
((lp2162
g2149
ag2151
ag2153
atp2163
Rp2164
sV\u738b
p2165
g2
((lp2166
V\u7434
p2167
aV\u72c2
p2168
aV\u6591
p2169
aV\u73ed
p2170
aV\u6789
p2171
aV\u745f
p2172
atp2173
Rp2174
sg2169
g2
((lp2175
g2167
ag2165
ag2168
ag2170
ag2171
ag2172
atp2176
Rp2177
sg2170
g2
((lp2178
g2167
ag2165
ag2168
ag2169
ag2171
ag2172
atp2179
Rp2180
sg2168
g2
((lp2181
g2167
ag2165
ag2169
ag2170
ag2171
ag2172
atp2182
Rp2183
sg2171
g2
((lp2184
g2165
ag2167
ag2168
ag2169
ag2170
ag2172
atp2185
Rp2186
sg2167
g2
((lp2187
g2165
ag2168
ag2169
ag2170
ag2171
ag2172
atp2188
Rp2189
sg2172
g2
((lp2190
g2165
ag2167
ag2168
ag2169
ag2170
ag2171
atp2191
Rp2192
sV\u5371
p2193
g2
((lp2194
V\u8dea
p2195
aV\u6845
p2196
aV\u8106
p2197
aV\u8be1
p2198
atp2199
Rp2200
sg2195
g2
((lp2201
g2196
ag2197
ag2198
ag2193
atp2202
Rp2203
sg2196
g2
((lp2204
g2195
ag2197
ag2198
ag2193
atp2205
Rp2206
sg2198
g2
((lp2207
g2195
ag2196
ag2197
ag2193
atp2208
Rp2209
sg2197
g2
((lp2210
g2195
ag2196
ag2198
ag2193
atp2211
Rp2212
sV\u97e6
p2213
g2
((lp2214
V\u4f1f
p2215
aV\u7eac
p2216
aV\u82c7
p2217
atp2218
Rp2219
sg2215
g2
((lp2220
g2216
ag2217
ag2213
atp2221
Rp2222
sg2217
g2
((lp2223
g2215
ag2216
ag2213
atp2224
Rp2225
sg2216
g2
((lp2226
g2215
ag2217
ag2213
atp2227
Rp2228
sV\u59d4
p2229
g2
((lp2230
V\u840e
p2231
ag2229
aV\u9b4f
p2232
atp2233
Rp2234
sg2231
g2
((lp2235
g2229
ag2232
atp2236
Rp2237
sg2232
g2
((lp2238
V\u9b3c
p2239
aV\u9b42
p2240
aV\u7470
p2241
aV\u9b44
p2242
aV\u6127
p2243
aV\u9b41
p2244
aV\u69d0
p2245
atp2246
Rp2247
sV\u6211
p2248
g2
((lp2249
V\u5a25
p2250
aV\u5ce8
p2251
aV\u9e45
p2252
atp2253
Rp2254
sg2251
g2
((lp2255
g2248
ag2250
ag2252
atp2256
Rp2257
sg2250
g2
((lp2258
g2248
ag2251
ag2252
atp2259
Rp2260
sg2252
g2
((lp2261
V\u9e23
p2262
aV\u83ba
p2263
aV\u9e64
p2264
aV\u9e1f
p2265
aV\u9e4a
p2266
aV\u5c9b
p2267
atp2268
Rp2269
sV\u543e
p2270
g2
((lp2271
V\u6342
p2272
aV\u68a7
p2273
aV\u609f
p2274
aV\u8bed
p2275
atp2276
Rp2277
sg2275
g2
((lp2278
g2272
ag2273
ag2274
ag2270
atp2279
Rp2280
sg2272
g2
((lp2281
g2273
ag2274
ag2275
ag2270
atp2282
Rp2283
sg2274
g2
((lp2284
g2272
ag2273
ag2275
ag2270
atp2285
Rp2286
sg2273
g2
((lp2287
g2272
ag2274
ag2275
ag2270
atp2288
Rp2289
sV\u6614
p2290
g2
((lp2291
V\u8721
p2292
aV\u9519
p2293
aV\u501f
p2294
aV\u9e4a
p2295
aV\u60dc
p2296
aV\u730e
p2297
aV\u63aa
p2298
aV\u814a
p2299
atp2300
Rp2301
sg2297
g2
((lp2302
g2294
ag2292
ag2293
ag2295
ag2296
ag2290
ag2298
ag2299
atp2303
Rp2304
sg2294
g2
((lp2305
g2292
ag2293
ag2295
ag2296
ag2290
ag2297
ag2298
ag2299
atp2306
Rp2307
sg2293
g2
((lp2308
g2292
ag2294
ag2295
ag2296
ag2290
ag2297
ag2298
ag2299
atp2309
Rp2310
sg2292
g2
((lp2311
g2293
ag2294
ag2295
ag2296
ag2290
ag2297
ag2298
ag2299
atp2312
Rp2313
sg2296
g2
((lp2314
g2292
ag2293
ag2294
ag2295
ag2290
ag2297
ag2298
ag2299
atp2315
Rp2316
sg2299
g2
((lp2317
g2292
ag2293
ag2294
ag2296
ag2290
ag2297
ag2298
ag2295
atp2318
Rp2319
sg2295
g2
((lp2320
g2262
ag2263
ag2264
ag2265
aV\u9e45
p2321
ag2267
atp2322
Rp2323
sg2298
g2
((lp2324
g2292
ag2293
ag2294
ag2295
ag2296
ag2290
ag2297
ag2299
atp2325
Rp2326
sV\u6687
p2327
g2
((lp2328
V\u5047
p2329
aV\u971e
p2330
aV\u7455
p2331
aV\u9050
p2332
atp2333
Rp2334
sg2329
g2
((lp2335
g2327
ag2330
ag2331
ag2332
atp2336
Rp2337
sg2330
g2
((lp2338
g2327
ag2329
ag2331
ag2332
atp2339
Rp2340
sg2331
g2
((lp2341
g2327
ag2330
ag2329
ag2332
atp2342
Rp2343
sg2332
g2
((lp2344
g2327
ag2330
ag2329
ag2331
atp2345
Rp2346
sV\u54b8
p2347
g2
((lp2348
V\u51cf
p2349
aV\u558a
p2350
atp2351
Rp2352
sg2349
g2
((lp2353
g2350
ag2347
atp2354
Rp2355
sg2350
g2
((lp2356
g2349
ag2347
atp2357
Rp2358
sV\u732e
p2359
g2
((lp2360
V\u73b0
p2361
atp2362
Rp2363
sg2361
g2
((lp2364
V\u781a
p2365
aV\u89c2
p2366
aV\u89c9
p2367
aV\u89c1
p2368
aV\u89c6
p2369
atp2370
Rp2371
sg644
g2
((lp2372
g643
ag645
ag2093
ag646
atp2373
Rp2374
sg646
g2
((lp2375
g643
ag644
ag645
ag2093
atp2376
Rp2377
sg645
g2
((lp2378
g643
ag644
ag2093
ag646
atp2379
Rp2380
sV\u5411
p2381
g2
((lp2382
V\u54cd
p2383
aV\u664c
p2384
atp2385
Rp2386
sg2383
g2
((lp2387
g2381
ag2384
atp2388
Rp2389
sg2384
g2
((lp2390
g2383
ag2381
atp2391
Rp2392
sV\u8096
p2393
g2
((lp2394
V\u9500
p2395
aV\u7744
p2396
aV\u4fcf
p2397
aV\u8bee
p2398
aV\u54e8
p2399
aV\u785d
p2400
aV\u9798
p2401
aV\u6084
p2402
aV\u5e29
p2403
aV\u68a2
p2404
aV\u6d88
p2405
aV\u7a0d
p2406
aV\u634e
p2407
aV\u5ced
p2408
atp2409
Rp2410
sg2405
g2
((lp2411
g2395
ag2396
ag2393
ag2397
ag2398
ag2399
ag2400
ag2401
ag2402
ag2403
ag2404
ag2406
ag2407
ag2408
atp2412
Rp2413
sg2404
g2
((lp2414
g2395
ag2396
ag2393
ag2397
ag2398
ag2399
ag2400
ag2401
ag2402
ag2403
ag2405
ag2406
ag2407
ag2408
atp2415
Rp2416
sg2395
g2
((lp2417
g2396
ag2393
ag2397
ag2398
ag2399
ag2400
ag2401
ag2402
ag2403
ag2404
ag2405
ag2406
ag2407
ag2408
atp2418
Rp2419
sg2407
g2
((lp2420
g2395
ag2396
ag2393
ag2397
ag2398
ag2399
ag2400
ag2401
ag2402
ag2403
ag2404
ag2405
ag2406
ag2408
atp2421
Rp2422
sg2402
g2
((lp2423
g2395
ag2396
ag2393
ag2397
ag2398
ag2399
ag2400
ag2401
ag2403
ag2404
ag2405
ag2406
ag2407
ag2408
atp2424
Rp2425
sg2399
g2
((lp2426
g2395
ag2396
ag2393
ag2397
ag2398
ag2400
ag2401
ag2402
ag2403
ag2404
ag2405
ag2406
ag2407
ag2408
atp2427
Rp2428
sg2406
g2
((lp2429
g2395
ag2396
ag2393
ag2397
ag2398
ag2399
ag2400
ag2401
ag2402
ag2403
ag2404
ag2405
ag2407
ag2408
atp2430
Rp2431
sg2400
g2
((lp2432
g2395
ag2396
ag2393
ag2397
ag2398
ag2399
ag2401
ag2402
ag2403
ag2404
ag2405
ag2406
ag2407
ag2408
atp2433
Rp2434
sg2408
g2
((lp2435
g2395
ag2396
ag2393
ag2397
ag2398
ag2399
ag2400
ag2401
ag2402
ag2403
ag2404
ag2405
ag2406
ag2407
atp2436
Rp2437
sg2397
g2
((lp2438
g2395
ag2396
ag2393
ag2398
ag2399
ag2400
ag2401
ag2402
ag2403
ag2404
ag2405
ag2406
ag2407
ag2408
atp2439
Rp2440
sg2401
g2
((lp2441
g2395
ag2396
ag2393
ag2397
ag2398
ag2399
ag2400
ag2402
ag2403
ag2404
ag2405
ag2406
ag2407
ag2408
atp2442
Rp2443
sg2396
g2
((lp2444
g2395
ag2393
ag2397
ag2398
ag2399
ag2400
ag2401
ag2402
ag2403
ag2404
ag2405
ag2406
ag2407
ag2408
atp2445
Rp2446
sg2398
g2
((lp2447
g2395
ag2396
ag2393
ag2397
ag2399
ag2400
ag2401
ag2402
ag2403
ag2404
ag2405
ag2406
ag2407
ag2408
atp2448
Rp2449
sg2403
g2
((lp2450
g2395
ag2396
ag2393
ag2397
ag2398
ag2399
ag2400
ag2401
ag2402
ag2404
ag2405
ag2406
ag2407
ag2408
atp2451
Rp2452
sV\u8f9b
p2453
g2
((lp2454
V\u8f9f
p2455
aV\u8f9e
p2456
aV\u8fa3
p2457
aV\u74e3
p2458
aV\u8fab
p2459
aV\u5bb0
p2460
aV\u8fa8 
p2461
aV\u907f
p2462
aV\u8fa9
p2463
atp2464
Rp2465
sg2458
g2
((lp2466
g2455
ag2456
ag2457
ag2453
ag2459
ag2460
ag2461
ag2462
ag2463
atp2467
Rp2468
sg2463
g2
((lp2469
g2455
ag2456
ag2457
ag2453
ag2458
ag2459
ag2460
ag2461
ag2462
atp2470
Rp2471
sg2459
g2
((lp2472
g2455
ag2456
ag2457
ag2453
ag2458
ag2460
ag2461
ag2462
ag2463
atp2473
Rp2474
sg2461
g2
((lp2475
g2455
ag2456
ag2453
ag2458
ag2459
ag2460
ag2457
ag2462
ag2463
atp2476
Rp2477
sg2456
g2
((lp2478
g2455
ag2457
ag2453
ag2458
ag2459
ag2460
ag2461
ag2462
ag2463
atp2479
Rp2480
sg2455
g2
((lp2481
V\u74a7
p2482
aV\u7656
p2483
aV\u58c1
p2484
aV\u5288
p2485
aV\u907f
p2486
atp2487
Rp2488
sg2462
g2
((lp2489
g2482
aV\u8f9f
p2490
ag2483
ag2484
ag2485
atp2491
Rp2492
sg2460
g2
((lp2493
g2455
ag2456
ag2457
ag2453
ag2458
ag2459
ag2461
ag2462
ag2463
atp2494
Rp2495
sg2457
g2
((lp2496
g2455
ag2456
ag2453
ag2458
ag2459
ag2460
ag2461
ag2462
ag2463
atp2497
Rp2498
sV\u79c0
p2499
g2
((lp2500
V\u7ee3
p2501
aV\u8bf1
p2502
aV\u9508
p2503
aV\u900f
p2504
atp2505
Rp2506
sg2503
g2
((lp2507
g2501
ag2502
ag2499
ag2504
atp2508
Rp2509
sg2501
g2
((lp2510
g2502
ag2503
ag2499
ag2504
atp2511
Rp2512
sg2502
g2
((lp2513
g2501
ag2503
ag2499
ag2504
atp2514
Rp2515
sg2504
g2
((lp2516
g2501
ag2502
ag2503
ag2499
atp2517
Rp2518
sV\u9700
p2519
g2
((lp2520
V\u61e6
p2521
aV\u5112
p2522
atp2523
Rp2524
sg2521
g2
((lp2525
g2519
ag2522
atp2526
Rp2527
sg2522
g2
((lp2528
g2521
ag2519
atp2529
Rp2530
sV\u7384
p2531
g2
((lp2532
V\u5f26
p2533
aV\u8237
p2534
aV\u7729
p2535
atp2536
Rp2537
sg2533
g2
((lp2538
g2535
ag2531
ag2534
atp2539
Rp2540
sg2534
g2
((lp2541
g2533
ag2531
ag2535
atp2542
Rp2543
sg2535
g2
((lp2544
g2533
ag2531
ag2534
atp2545
Rp2546
sg479
g2
((lp2547
g480
ag481
ag482
ag1041
ag483
atp2548
Rp2549
sg483
g2
((lp2550
g479
ag480
ag481
ag482
ag1041
atp2551
Rp2552
sg481
g2
((lp2553
g479
ag480
ag482
ag1041
ag483
atp2554
Rp2555
sg482
g2
((lp2556
g479
ag480
ag481
ag1041
ag483
atp2557
Rp2558
sg639
g2
((lp2559
g636
ag637
ag638
atp2560
Rp2561
sg638
g2
((lp2562
g636
ag637
ag639
atp2563
Rp2564
sg636
g2
((lp2565
g637
ag638
ag639
atp2566
Rp2567
sV\u5938
p2568
g2
((lp2569
V\u80ef
p2570
aV\u6c61
p2571
aV\u630e
p2572
aV\u57ae
p2573
aV\u8de8
p2574
atp2575
Rp2576
sg2573
g2
((lp2577
g2568
ag2570
ag2571
ag2572
ag2574
atp2578
Rp2579
sg2574
g2
((lp2580
g2568
ag2570
ag2571
ag2572
ag2573
atp2581
Rp2582
sg2572
g2
((lp2583
g2568
ag2570
ag2571
ag2573
ag2574
atp2584
Rp2585
sg2570
g2
((lp2586
g2568
ag2571
ag2572
ag2573
ag2574
atp2587
Rp2588
sg2571
g2
((lp2589
g2568
ag2570
ag2572
ag2573
ag2574
atp2590
Rp2591
sV\u5170
p2592
g2
((lp2593
V\u70c2
p2594
aV\u680f
p2595
aV\u62e6
p2596
atp2597
Rp2598
sg2596
g2
((lp2599
g2592
ag2594
ag2595
atp2600
Rp2601
sg2595
g2
((lp2602
g2592
ag2594
ag2596
atp2603
Rp2604
sg2594
g2
((lp2605
g2592
ag2595
ag2596
atp2606
Rp2607
sV\u9611
p2608
g2
((lp2609
V\u6593
p2610
aV\u6f9c
p2611
atp2612
Rp2613
sg2611
g2
((lp2614
g2610
ag2608
atp2615
Rp2616
sg2610
g2
((lp2617
g2608
ag2611
atp2618
Rp2619
sV\u52b3
p2620
g2
((lp2621
V\u6d9d
p2622
aV\u635e
p2623
atp2624
Rp2625
sg2622
g2
((lp2626
g2620
ag2623
atp2627
Rp2628
sg2623
g2
((lp2629
g2622
ag2620
atp2630
Rp2631
sV\u4e50
p2632
g2
((lp2633
V\u70c1
p2634
aV\u783e
p2635
atp2636
Rp2637
sg2635
g2
((lp2638
g2632
ag2634
atp2639
Rp2640
sg2634
g2
((lp2641
g2632
ag2635
atp2642
Rp2643
sg1069
g2
((lp2644
g1068
ag1070
ag2114
ag1071
ag1072
ag1073
atp2645
Rp2646
sg1070
g2
((lp2647
g1068
ag1069
ag2114
ag1071
ag1072
ag1073
atp2648
Rp2649
sg1073
g2
((lp2650
g1068
ag1069
ag1070
ag2114
ag1071
ag1072
atp2651
Rp2652
sg1068
g2
((lp2653
g1069
ag1070
ag2114
ag1071
ag1072
ag1073
atp2654
Rp2655
sg1071
g2
((lp2656
g1068
ag1069
ag1070
ag2114
ag1072
ag1073
atp2657
Rp2658
sg799
g2
((lp2659
g795
ag796
ag797
ag798
aV\u52a8
p2660
atp2661
Rp2662
sg795
g2
((lp2663
g796
ag797
ag798
ag2660
ag799
atp2664
Rp2665
sg797
g2
((lp2666
g795
ag796
ag798
ag2660
ag799
atp2667
Rp2668
sg798
g2
((lp2669
V\u6ca5
p2670
aV\u5386
p2671
aV\u5389
p2672
atp2673
Rp2674
sg796
g2
((lp2675
g2670
ag2671
ag2672
aV\u52b1
p2676
atp2677
Rp2678
sg2672
g2
((lp2679
g2670
ag2671
ag2676
atp2680
Rp2681
sg2670
g2
((lp2682
g2671
ag2672
ag2676
atp2683
Rp2684
sg976
g2
((lp2685
g971
ag972
aV\u7ad9
p2686
ag974
ag973
ag975
atp2687
Rp2688
sg972
g2
((lp2689
g971
ag2686
ag974
ag973
ag975
ag976
atp2690
Rp2691
sg971
g2
((lp2692
g972
ag2686
ag974
ag973
ag975
ag976
atp2693
Rp2694
sg974
g2
((lp2695
g971
ag972
ag2686
ag973
ag975
ag976
atp2696
Rp2697
sg975
g2
((lp2698
g971
ag972
ag2686
ag974
ag973
ag976
atp2699
Rp2700
sg973
g2
((lp2701
g971
ag972
ag2686
ag974
ag975
ag976
atp2702
Rp2703
sV\u5229
p2704
g2
((lp2705
V\u7281
p2706
aV\u4fd0
p2707
aV\u68a8
p2708
atp2709
Rp2710
sg2707
g2
((lp2711
g2704
ag2706
ag2708
atp2712
Rp2713
sg2706
g2
((lp2714
g2704
ag2708
ag2707
atp2715
Rp2716
sg2708
g2
((lp2717
g2704
ag2706
ag2707
atp2718
Rp2719
sg1558
g2
((lp2720
V\u94fe
p2721
ag1559
atp2722
Rp2723
sg1559
g2
((lp2724
g1558
ag2721
atp2725
Rp2726
sg455
g2
((lp2727
V\u917f
p2728
ag454
ag456
atp2729
Rp2730
sg454
g2
((lp2731
V\u6073
p2732
aV\u57a6
p2733
aV\u72fc
p2734
aV\u6068
p2735
aV\u826e
p2736
aV\u72e0
p2737
atp2738
Rp2739
sg456
g2
((lp2740
g2732
ag2733
ag2735
ag2736
aV\u5a18
p2741
ag2737
atp2742
Rp2743
sV\u64a9
p2744
g2
((lp2745
V\u6f66
p2746
aV\u9563
p2747
aV\u4e86
p2748
aV\u71ce
p2749
aV\u5639
p2750
atp2751
Rp2752
sg2750
g2
((lp2753
g2746
ag2747
ag2748
ag2749
ag2744
atp2754
Rp2755
sg2746
g2
((lp2756
g2747
ag2748
ag2749
ag2744
ag2750
atp2757
Rp2758
sg2748
g2
((lp2759
g2746
ag2747
ag2749
ag2744
ag2750
atp2760
Rp2761
sg2749
g2
((lp2762
g2746
ag2747
ag2748
ag2744
ag2750
atp2763
Rp2764
sg2747
g2
((lp2765
g2746
ag2748
ag2749
ag2744
ag2750
atp2766
Rp2767
sV\u5217
p2768
g2
((lp2769
V\u4f8b
p2770
aV\u70c8
p2771
aV\u54a7
p2772
aV\u88c2
p2773
aV\u51bd
p2774
atp2775
Rp2776
sg2770
g2
((lp2777
g2771
ag2768
ag2772
ag2773
ag2774
atp2778
Rp2779
sg2771
g2
((lp2780
g2770
ag2768
ag2772
ag2773
ag2774
atp2781
Rp2782
sg2773
g2
((lp2783
g2770
ag2771
ag2768
ag2772
ag2774
atp2784
Rp2785
sg2774
g2
((lp2786
g2770
ag2771
ag2768
ag2772
ag2773
atp2787
Rp2788
sg2772
g2
((lp2789
g2770
ag2771
ag2768
ag2773
ag2774
atp2790
Rp2791
sV\u6797
p2792
g2
((lp2793
V\u6751
p2794
aV\u6816
p2795
aV\u67e9
p2796
aV\u67c4
p2797
aV\u6c90
p2798
aV\u6750
p2799
aV\u6846
p2800
aV\u6728
p2801
atp2802
Rp2803
sV\u5a6a
p2804
g2
((lp2805
V\u7981
p2806
aV\u68a6
p2807
aV\u695a
p2808
ag2792
atp2809
Rp2810
sg2808
g2
((lp2811
g2806
ag2807
ag2792
ag2804
atp2812
Rp2813
sg2807
g2
((lp2814
g2806
ag2808
ag2792
ag2804
atp2815
Rp2816
sg2806
g2
((lp2817
g2807
ag2808
ag2792
ag2804
atp2818
Rp2819
sV\u4e34
p2820
g2
((lp2821
V\u84dd
p2822
aV\u69db
p2823
aV\u6ee5
p2824
aV\u7bee
p2825
aV\u76d1
p2826
aV\u9274
p2827
atp2828
Rp2829
sg2826
g2
((lp2830
g2822
ag2823
ag2824
ag2825
ag2827
ag2820
atp2831
Rp2832
sg2827
g2
((lp2833
g2822
ag2823
ag2824
ag2825
ag2826
ag2820
atp2834
Rp2835
sg2825
g2
((lp2836
g2822
ag2823
ag2824
ag2826
ag2827
ag2820
atp2837
Rp2838
sg2822
g2
((lp2839
g2823
ag2824
ag2825
ag2826
ag2827
ag2820
atp2840
Rp2841
sg2824
g2
((lp2842
g2822
ag2823
ag2825
ag2826
ag2827
ag2820
atp2843
Rp2844
sg2823
g2
((lp2845
g2822
ag2824
ag2825
ag2826
ag2827
ag2820
atp2846
Rp2847
sV\u5d99
p2848
g2
((lp2849
V\u9cde
p2850
aV\u78f7
p2851
aV\u7cbc
p2852
aV\u9e9f
p2853
atp2854
Rp2855
sg2852
g2
((lp2856
g2850
ag2851
ag2848
ag2853
atp2857
Rp2858
sg2851
g2
((lp2859
g2850
ag2853
ag2852
ag2848
atp2860
Rp2861
sg2853
g2
((lp2862
g2850
ag2851
ag2852
ag2848
atp2863
Rp2864
sg2850
g2
((lp2865
g2851
ag2852
ag2848
ag2853
atp2866
Rp2867
sg235
g2
((lp2868
V\u9886
p2869
ag226
ag227
ag228
ag229
ag230
ag231
ag232
ag234
ag233
atp2870
Rp2871
sg228
g2
((lp2872
g2869
ag226
ag227
ag230
ag229
ag231
ag232
ag233
ag234
ag235
atp2873
Rp2874
sg232
g2
((lp2875
g2869
ag226
ag227
ag228
ag229
ag230
ag231
ag233
ag234
ag235
atp2876
Rp2877
sg229
g2
((lp2878
g2869
ag226
ag227
ag228
ag230
ag231
ag232
ag233
ag234
ag235
atp2879
Rp2880
sg230
g2
((lp2881
g2869
ag226
ag227
ag228
ag229
ag231
ag232
ag233
ag234
ag235
atp2882
Rp2883
sg227
g2
((lp2884
g2869
ag226
ag228
ag229
ag230
ag231
ag232
ag233
ag234
ag235
atp2885
Rp2886
sg231
g2
((lp2887
g2869
ag226
ag227
ag228
ag229
ag230
ag232
ag233
ag234
ag235
atp2888
Rp2889
sg234
g2
((lp2890
g2869
ag226
ag227
ag228
ag229
ag230
ag231
ag232
ag233
ag235
atp2891
Rp2892
sg226
g2
((lp2893
g2869
ag227
ag228
ag229
ag230
ag231
ag232
ag233
ag234
ag235
atp2894
Rp2895
sg233
g2
((lp2896
g2869
ag226
ag227
ag228
ag229
ag230
ag231
ag232
ag234
ag235
atp2897
Rp2898
sV\u7559
p2899
g2
((lp2900
V\u6e9c
p2901
aV\u905b
p2902
aV\u69b4
p2903
aV\u7624
p2904
atp2905
Rp2906
sg2903
g2
((lp2907
g2902
ag2901
ag2899
ag2904
atp2908
Rp2909
sg2904
g2
((lp2910
g2901
ag2902
ag2903
ag2899
atp2911
Rp2912
sg2901
g2
((lp2913
g2902
ag2903
ag2899
ag2904
atp2914
Rp2915
sg2902
g2
((lp2916
g2901
ag2903
ag2899
ag2904
atp2917
Rp2918
sV\u9f99
p2919
g2
((lp2920
V\u62e2
p2921
aV\u5784
p2922
aV\u5ba0
p2923
aV\u830f
p2924
aV\u5e9e
p2925
aV\u7b3c
p2926
atp2927
Rp2928
sg2921
g2
((lp2929
g2922
ag2923
ag2924
ag2925
ag2919
ag2926
atp2930
Rp2931
sg2926
g2
((lp2932
g2921
ag2922
ag2923
ag2924
ag2925
ag2919
atp2933
Rp2934
sg2925
g2
((lp2935
g2921
ag2922
ag2923
ag2924
ag2919
ag2926
atp2936
Rp2937
sg2923
g2
((lp2938
g2921
ag2922
ag2924
ag2925
ag2919
ag2926
atp2939
Rp2940
sg2924
g2
((lp2941
g2921
ag2922
ag2923
ag2925
ag2919
ag2926
atp2942
Rp2943
sg2922
g2
((lp2944
g2921
ag2923
ag2924
ag2925
ag2919
ag2926
atp2945
Rp2946
sV\u5a04
p2947
g2
((lp2948
V\u507b
p2949
aV\u6570
p2950
aV\u697c
p2951
aV\u891b
p2952
aV\u7f15
p2953
aV\u6402
p2954
aV\u848c
p2955
atp2956
Rp2957
sg2951
g2
((lp2958
g2949
ag2950
ag2952
ag2953
ag2947
ag2954
ag2955
atp2959
Rp2960
sg2954
g2
((lp2961
g2949
ag2950
ag2951
ag2952
ag2953
ag2947
ag2955
atp2962
Rp2963
sg2950
g2
((lp2964
g2949
ag2951
ag2952
ag2953
ag2947
ag2954
ag2955
atp2965
Rp2966
sg2953
g2
((lp2967
g2949
ag2950
ag2951
ag2952
ag2947
ag2954
ag2955
atp2968
Rp2969
sg2949
g2
((lp2970
g2950
ag2951
ag2952
ag2953
ag2947
ag2954
ag2955
atp2971
Rp2972
sg2952
g2
((lp2973
g2949
ag2950
ag2951
ag2953
ag2947
ag2954
ag2955
atp2974
Rp2975
sg2955
g2
((lp2976
g2949
ag2950
ag2951
ag2952
ag2953
ag2947
ag2954
atp2977
Rp2978
sV\u5f55
p2979
g2
((lp2980
V\u7eff
p2981
aV\u788c
p2982
aV\u902e
p2983
aV\u5265
p2984
atp2985
Rp2986
sg2982
g2
((lp2987
g2979
ag2984
ag2983
ag2981
atp2988
Rp2989
sg2981
g2
((lp2990
g2979
ag2982
ag2983
ag2984
atp2991
Rp2992
sg2983
g2
((lp2993
g2984
ag2979
ag2982
ag2981
atp2994
Rp2995
sg2984
g2
((lp2996
g2979
ag2982
ag2983
ag2981
atp2997
Rp2998
sV\u5415
p2999
g2
((lp3000
V\u94dd
p3001
aV\u5bab
p3002
atp3003
Rp3004
sg3001
g2
((lp3005
g3002
ag2999
atp3006
Rp3007
sg3002
g2
((lp3008
g3001
ag2999
atp3009
Rp3010
sV\u7387
p3011
g2
((lp3012
V\u87c0
p3013
aV\u6454
p3014
atp3015
Rp3016
sg3014
g2
((lp3017
g3013
ag3011
atp3018
Rp3019
sg3013
g2
((lp3020
g3014
ag3011
atp3021
Rp3022
sV\u4ed1
p3023
g2
((lp3024
V\u62a1
p3025
aV\u8f6e
p3026
aV\u7eb6
p3027
aV\u6ca6
p3028
aV\u8bba
p3029
aV\u4f26
p3030
atp3031
Rp3032
sg3027
g2
((lp3033
g3023
ag3026
ag3029
ag3028
ag3025
ag3030
atp3034
Rp3035
sg3029
g2
((lp3036
g3023
ag3026
ag3027
ag3028
ag3025
ag3030
atp3037
Rp3038
sg3028
g2
((lp3039
g3023
ag3026
ag3029
ag3027
ag3025
ag3030
atp3040
Rp3041
sg3030
g2
((lp3042
g3025
ag3023
ag3026
ag3027
ag3028
ag3029
atp3043
Rp3044
sg3025
g2
((lp3045
g3023
ag3026
ag3027
ag3028
ag3029
ag3030
atp3046
Rp3047
sg3026
g2
((lp3048
g3025
ag3023
ag3027
ag3028
ag3029
ag3030
atp3049
Rp3050
sV\u7f57
p3051
g2
((lp3052
V\u841d
p3053
aV\u7ba9
p3054
atp3055
Rp3056
sg3053
g2
((lp3057
g3054
ag3051
atp3058
Rp3059
sg3054
g2
((lp3060
g3053
ag3051
atp3061
Rp3062
sV\u9ebb
p3063
g2
((lp3064
V\u78e8
p3065
aV\u6469
p3066
aV\u9b54
p3067
aV\u9761
p3068
atp3069
Rp3070
sg3065
g2
((lp3071
g3063
ag3066
ag3067
ag3068
atp3072
Rp3073
sg3066
g2
((lp3074
g3065
ag3063
ag3067
ag3068
atp3075
Rp3076
sg3067
g2
((lp3077
g3065
ag3063
ag3066
ag3068
atp3078
Rp3079
sg3068
g2
((lp3080
g3065
ag3063
ag3066
ag3067
atp3081
Rp3082
sg202
g2
((lp3083
g198
ag199
ag200
ag201
ag1638
ag203
ag204
atp3084
Rp3085
sg199
g2
((lp3086
g198
ag200
ag201
ag202
ag1638
ag203
ag204
atp3087
Rp3088
sg200
g2
((lp3089
g198
ag199
ag201
ag202
ag1638
ag203
ag204
atp3090
Rp3091
sg201
g2
((lp3092
g198
ag199
ag200
ag202
ag1638
ag203
ag204
atp3093
Rp3094
sg204
g2
((lp3095
g198
ag199
ag200
ag201
ag202
ag1638
ag203
atp3096
Rp3097
sg203
g2
((lp3098
g198
ag199
ag200
ag201
ag202
ag1638
ag204
atp3099
Rp3100
sV\u4e70
p3101
g2
((lp3102
V\u5356
p3103
aV\u7eed
p3104
aV\u8bfb
p3105
atp3106
Rp3107
sg3103
g2
((lp3108
g3101
ag3104
ag3105
atp3109
Rp3110
sg3104
g2
((lp3111
g3103
ag3101
ag3105
atp3112
Rp3113
sg3105
g2
((lp3114
g3103
ag3101
ag3104
atp3115
Rp3116
sV\u66fc
p3117
g2
((lp3118
V\u8513
p3119
aV\u6162
p3120
aV\u6f2b
p3121
aV\u9992
p3122
aV\u5e54
p3123
atp3124
Rp3125
sg3120
g2
((lp3126
g3119
ag3117
ag3121
ag3122
ag3123
atp3127
Rp3128
sg3121
g2
((lp3129
g3119
ag3120
ag3117
ag3122
ag3123
atp3130
Rp3131
sg3119
g2
((lp3132
g3120
ag3117
ag3121
ag3122
ag3123
atp3133
Rp3134
sg3122
g2
((lp3135
g3119
ag3120
ag3117
ag3121
ag3123
atp3136
Rp3137
sg3123
g2
((lp3138
g3119
ag3120
ag3117
ag3121
ag3122
atp3139
Rp3140
sV\u6bdb
p3141
g2
((lp3142
V\u6beb
p3143
aV\u6be1
p3144
aV\u6bef
p3145
atp3146
Rp3147
sg3144
g2
((lp3148
g3143
ag3145
ag3141
atp3149
Rp3150
sg3145
g2
((lp3151
g3143
ag3144
ag3141
atp3152
Rp3153
sg3143
g2
((lp3154
g3144
ag3145
ag3141
atp3155
Rp3156
sV\u6bcf
p3157
g2
((lp3158
V\u6094
p3159
aV\u6d77
p3160
aV\u6666
p3161
aV\u4fae
p3162
aV\u8bf2
p3163
aV\u6885
p3164
aV\u9709
p3165
atp3166
Rp3167
sg3160
g2
((lp3168
g3159
ag3161
ag3162
ag3163
ag3164
ag3165
ag3157
atp3169
Rp3170
sg3163
g2
((lp3171
g3159
ag3160
ag3161
ag3162
ag3164
ag3165
ag3157
atp3172
Rp3173
sg3159
g2
((lp3174
g3160
ag3161
ag3162
ag3163
ag3164
ag3165
ag3157
atp3175
Rp3176
sg3165
g2
((lp3177
g3159
ag3160
ag3161
ag3162
ag3163
ag3164
ag3157
atp3178
Rp3179
sg3161
g2
((lp3180
g3159
ag3160
ag3162
ag3163
ag3164
ag3165
ag3157
atp3181
Rp3182
sg3164
g2
((lp3183
g3159
ag3160
ag3161
ag3162
ag3163
ag3165
ag3157
atp3184
Rp3185
sg3162
g2
((lp3186
g3159
ag3160
ag3161
ag3163
ag3164
ag3165
ag3157
atp3187
Rp3188
sV\u95e8
p3189
g2
((lp3190
V\u95ea
p3191
aV\u9614
p3192
aV\u95f7
p3193
aV\u95f2
p3194
aV\u95ed
p3195
aV\u95ef
p3196
atp3197
Rp3198
sg3194
g2
((lp3199
g3191
ag3193
ag3192
ag3195
ag3189
ag3196
atp3200
Rp3201
sg3193
g2
((lp3202
g3191
ag3192
ag3194
ag3195
ag3189
ag3196
atp3203
Rp3204
sg3195
g2
((lp3205
g3191
ag3193
ag3192
ag3194
ag3189
ag3196
atp3206
Rp3207
sg3196
g2
((lp3208
g3191
ag3193
ag3192
ag3194
ag3195
ag3189
atp3209
Rp3210
sg3192
g2
((lp3211
g3191
ag3193
ag3194
ag3195
ag3189
ag3196
atp3212
Rp3213
sg3191
g2
((lp3214
g3193
ag3192
ag3194
ag3195
ag3189
ag3196
atp3215
Rp3216
sV\u7c73
p3217
g2
((lp3218
V\u65ad
p3219
aV\u7ee7
p3220
aV\u8ff7
p3221
aV\u772f
p3222
atp3223
Rp3224
sg3220
g2
((lp3225
g3217
ag3219
ag3221
ag3222
atp3226
Rp3227
sg3219
g2
((lp3228
V\u6bb5
p3229
atp3230
Rp3231
sg3222
g2
((lp3232
g3217
ag3219
ag3220
ag3221
atp3233
Rp3234
sg3221
g2
((lp3235
g3217
ag3219
ag3220
ag3222
atp3236
Rp3237
sV\u514d
p3238
g2
((lp3239
V\u5a29
p3240
aV\u52c9
p3241
aV\u6400
p3242
aV\u633d
p3243
aV\u665a
p3244
aV\u998b
p3245
aV\u5195
p3246
aV\u9038
p3247
atp3248
Rp3249
sg3243
g2
((lp3250
g3240
ag3241
ag3242
ag3238
ag3244
ag3245
ag3246
ag3247
atp3251
Rp3252
sg3241
g2
((lp3253
g3240
ag3242
ag3238
ag3243
ag3244
ag3245
ag3246
ag3247
atp3254
Rp3255
sg3246
g2
((lp3256
g3240
ag3241
ag3242
ag3238
ag3243
ag3244
ag3245
ag3247
atp3257
Rp3258
sg3244
g2
((lp3259
g3240
ag3241
ag3242
ag3238
ag3243
ag3245
ag3246
ag3247
atp3260
Rp3261
sg3240
g2
((lp3262
g3241
ag3242
ag3238
ag3243
ag3244
ag3245
ag3246
ag3247
atp3263
Rp3264
sg3242
g2
((lp3265
g3240
ag3241
ag3238
ag3243
ag3244
ag3245
ag3246
ag3247
atp3266
Rp3267
sg3245
g2
((lp3268
g3240
ag3241
ag3242
ag3238
ag3243
ag3244
ag3246
ag3247
atp3269
Rp3270
sg3247
g2
((lp3271
g3240
ag3241
ag3242
ag3238
ag3243
ag3244
ag3245
ag3246
atp3272
Rp3273
sV\u9762
p3274
g2
((lp3275
V\u817c
p3276
aV\u7f05
p3277
atp3278
Rp3279
sg3276
g2
((lp3280
g3277
ag3274
atp3281
Rp3282
sg3277
g2
((lp3283
g3276
ag3274
atp3284
Rp3285
sV\u82d7
p3286
g2
((lp3287
V\u732b
p3288
aV\u7784
p3289
aV\u63cf
p3290
atp3291
Rp3292
sg3290
g2
((lp3293
g3288
ag3289
ag3286
atp3294
Rp3295
sg3288
g2
((lp3296
g3289
ag3286
ag3290
atp3297
Rp3298
sg3289
g2
((lp3299
g3288
ag3286
ag3290
atp3300
Rp3301
sV\u76d0
p3302
g2
((lp3303
V\u76c6
p3304
aV\u731b
p3305
aV\u5b5f
p3306
aV\u76c2
p3307
aV\u76d2
p3308
atp3309
Rp3310
sg3304
g2
((lp3311
g3302
ag3305
ag3306
ag3307
ag3308
atp3312
Rp3313
sg3308
g2
((lp3314
g3302
ag3304
ag3305
ag3306
ag3307
atp3315
Rp3316
sg3306
g2
((lp3317
g3302
ag3304
ag3305
ag3307
ag3308
atp3318
Rp3319
sg3305
g2
((lp3320
g3302
ag3304
ag3306
ag3307
ag3308
atp3321
Rp3322
sg3307
g2
((lp3323
g3302
ag3304
ag3305
ag3306
ag3308
atp3324
Rp3325
sV\u83ab
p3326
g2
((lp3327
V\u5e55
p3328
aV\u6155
p3329
aV\u5893
p3330
aV\u6f20
p3331
aV\u6478
p3332
aV\u6a21
p3333
aV\u66ae
p3334
aV\u6479
p3335
atp3336
Rp3337
sg3330
g2
((lp3338
g3326
ag3328
ag3329
ag3331
ag3332
ag3333
ag3334
ag3335
atp3339
Rp3340
sg3334
g2
((lp3341
g3326
ag3328
ag3329
ag3330
ag3331
ag3332
ag3333
ag3335
atp3342
Rp3343
sg3328
g2
((lp3344
g3326
ag3329
ag3330
ag3331
ag3332
ag3333
ag3334
ag3335
atp3345
Rp3346
sg3329
g2
((lp3347
g3326
ag3328
ag3330
ag3331
ag3332
ag3333
ag3334
ag3335
atp3348
Rp3349
sg3333
g2
((lp3350
g3326
ag3328
ag3329
ag3330
ag3331
ag3332
ag3334
ag3335
atp3351
Rp3352
sg3332
g2
((lp3353
g3326
ag3328
ag3329
ag3330
ag3331
ag3333
ag3334
ag3335
atp3354
Rp3355
sg3335
g2
((lp3356
g3326
ag3328
ag3329
ag3330
ag3331
ag3332
ag3333
ag3334
atp3357
Rp3358
sg3331
g2
((lp3359
g3326
ag3328
ag3329
ag3330
ag3332
ag3333
ag3334
ag3335
atp3360
Rp3361
sV\u67d0
p3362
g2
((lp3363
V\u7164
p3364
aV\u5a92
p3365
aV\u8c0b
p3366
atp3367
Rp3368
sg3366
g2
((lp3369
g3362
ag3364
ag3365
atp3370
Rp3371
sg3365
g2
((lp3372
g3362
ag3364
ag3366
atp3373
Rp3374
sg3364
g2
((lp3375
g151
ag152
ag153
ag155
aV\u70e7
p3376
ag156
atp3377
Rp3378
sg2801
g2
((lp3379
g2794
ag2795
aV\u6797
p3380
ag2796
ag2797
ag2798
ag2799
ag2800
atp3381
Rp3382
sg2799
g2
((lp3383
V\u8d22
p3384
aV\u624d
p3385
atp3386
Rp3387
sg2794
g2
((lp3388
V\u4ed8
p3389
aV\u886c
p3390
aV\u5bf8
p3391
aV\u8fc7
p3392
aV\u5b88
p3393
aV\u5bf9
p3394
aV\u65f6
p3395
aV\u8ba8
p3396
atp3397
Rp3398
sg2797
g2
((lp3399
V\u5185
p3400
aV\u7eb3
p3401
aV\u5450
p3402
atp3403
Rp3404
sg2795
g2
((lp3405
g2794
ag3380
ag2796
ag2797
ag2798
ag2799
ag2800
ag2801
atp3406
Rp3407
sg2796
g2
((lp3408
g2794
ag2795
ag3380
ag2797
ag2798
ag2799
ag2800
ag2801
atp3409
Rp3410
sg2800
g2
((lp3411
g2794
ag2795
ag3380
ag2796
ag2797
ag2798
ag2799
ag2801
atp3412
Rp3413
sg2798
g2
((lp3414
g2794
ag2795
ag3380
ag2796
ag2797
ag2799
ag2800
ag2801
atp3415
Rp3416
sg3400
g2
((lp3417
V\u67c4
p3418
ag3401
ag3402
atp3419
Rp3420
sg3401
g2
((lp3421
g3400
ag3418
ag3402
atp3422
Rp3423
sg3402
g2
((lp3424
g3400
ag3418
ag3401
atp3425
Rp3426
sV\u90a3
p3427
g2
((lp3428
V\u632a
p3429
aV\u5a1c
p3430
aV\u54ea
p3431
atp3432
Rp3433
sg3431
g2
((lp3434
g3429
ag3430
ag3427
atp3435
Rp3436
sg3429
g2
((lp3437
g3430
ag3427
ag3431
atp3438
Rp3439
sg3430
g2
((lp3440
g3429
ag3427
ag3431
atp3441
Rp3442
sV\u96be
p3443
g2
((lp3444
V\u644a
p3445
ag3443
aV\u6ee9
p3446
atp3447
Rp3448
sg3446
g2
((lp3449
g3445
ag3443
atp3450
Rp3451
sg3445
g2
((lp3452
g3443
ag3446
atp3453
Rp3454
sV\u7592
p3455
g2
((lp3456
V\u75bc
p3457
aV\u75d2
p3458
aV\u75c5
p3459
aV\u7626
p3460
aV\u7597
p3461
atp3462
Rp3463
sg3460
g2
((lp3464
g3457
ag3458
ag3459
ag3455
ag3461
atp3465
Rp3466
sg3459
g2
((lp3467
g3457
ag3458
ag3460
ag3455
ag3461
atp3468
Rp3469
sg3461
g2
((lp3470
g3457
ag3458
ag3459
ag3455
ag3460
atp3471
Rp3472
sg3457
g2
((lp3473
g3458
ag3459
ag3460
ag3455
ag3461
atp3474
Rp3475
sg3458
g2
((lp3476
g3457
ag3459
ag3460
ag3455
ag3461
atp3477
Rp3478
sg2265
g2
((lp3479
g2262
ag2263
ag2266
ag2264
ag2321
ag2267
atp3480
Rp3481
sg2267
g2
((lp3482
g2262
ag2263
ag2264
ag2265
ag2321
ag2266
atp3483
Rp3484
sg2262
g2
((lp3485
g2263
ag2264
ag2265
ag2321
ag2266
ag2267
atp3486
Rp3487
sg2263
g2
((lp3488
g2262
ag2264
ag2265
ag2321
ag2266
ag2267
atp3489
Rp3490
sg2264
g2
((lp3491
g2262
ag2263
ag2266
ag2265
ag2321
ag2267
atp3492
Rp3493
sV\u5b81
p3494
g2
((lp3495
V\u62e7
p3496
aV\u72de
p3497
atp3498
Rp3499
sg3497
g2
((lp3500
g3494
ag3496
atp3501
Rp3502
sg3496
g2
((lp3503
g3494
ag3497
atp3504
Rp3505
sV\u519c
p3506
g2
((lp3507
g3506
aV\u6d53
p3508
atp3509
Rp3510
sg3508
g2
((lp3511
g3506
atp3512
Rp3513
sV\u5974
p3514
g2
((lp3515
V\u6055
p3516
aV\u6012
p3517
aV\u52aa
p3518
atp3519
Rp3520
sg3518
g2
((lp3521
g3517
ag3514
ag3516
atp3522
Rp3523
sg3517
g2
((lp3524
g3516
ag3514
ag3518
atp3525
Rp3526
sg3516
g2
((lp3527
g3517
ag3514
ag3518
atp3528
Rp3529
sV\u5973
p3530
g2
((lp3531
V\u800d
p3532
aV\u59a5
p3533
aV\u8981
p3534
atp3535
Rp3536
sg3533
g2
((lp3537
g3530
ag3532
ag3534
atp3538
Rp3539
sg3534
g2
((lp3540
g3530
ag3533
ag3532
atp3541
Rp3542
sg3532
g2
((lp3543
g3530
ag3533
ag3534
atp3544
Rp3545
sV\u65c1
p3546
g2
((lp3547
V\u699c
p3548
aV\u78c5
p3549
aV\u508d
p3550
aV\u8180
p3551
atp3552
Rp3553
sg3548
g2
((lp3554
g3549
ag3550
ag3551
ag3546
atp3555
Rp3556
sg3551
g2
((lp3557
g3548
ag3549
ag3550
ag3546
atp3558
Rp3559
sg3550
g2
((lp3560
g3548
ag3549
ag3551
ag3546
atp3561
Rp3562
sg3549
g2
((lp3563
g3548
ag3550
ag3551
ag3546
atp3564
Rp3565
sV\u76ae
p3566
g2
((lp3567
V\u5f7c
p3568
aV\u76b1
p3569
aV\u8ddb
p3570
aV\u73bb
p3571
aV\u7834
p3572
aV\u5761
p3573
aV\u75b2 
p3574
aV\u6ce2
p3575
aV\u62ab
p3576
aV\u88ab
p3577
atp3578
Rp3579
sg3572
g2
((lp3580
g3568
ag3569
ag3570
ag3571
ag3566
ag3573
ag3574
ag3575
ag3576
ag3577
atp3581
Rp3582
sg3575
g2
((lp3583
g3568
ag3569
ag3570
ag3571
ag3572
ag3566
ag3573
ag3574
ag3576
ag3577
atp3584
Rp3585
sg3573
g2
((lp3586
g3568
ag3569
ag3570
ag3571
ag3572
ag3566
ag3574
ag3575
ag3576
ag3577
atp3587
Rp3588
sg3568
g2
((lp3589
g3569
ag3570
ag3571
ag3572
ag3566
ag3573
ag3574
ag3575
ag3576
ag3577
atp3590
Rp3591
sg3577
g2
((lp3592
g3568
ag3569
ag3570
ag3571
ag3572
ag3566
ag3573
ag3574
ag3575
ag3576
atp3593
Rp3594
sg3571
g2
((lp3595
g3568
ag3569
ag3570
ag3572
ag3566
ag3573
ag3574
ag3575
ag3576
ag3577
atp3596
Rp3597
sg3576
g2
((lp3598
g3568
ag3569
ag3570
ag3571
ag3572
ag3566
ag3573
ag3574
ag3575
ag3577
atp3599
Rp3600
sg3574
g2
((lp3601
g3568
ag3569
ag3570
ag3571
ag3572
ag3566
ag3573
ag3575
ag3576
ag3577
atp3602
Rp3603
sg3570
g2
((lp3604
g3568
ag3569
ag3571
ag3572
ag3566
ag3573
ag3574
ag3575
ag3576
ag3577
atp3605
Rp3606
sg3569
g2
((lp3607
V\u520d
p3608
aV\u715e
p3609
aV\u90b9
p3610
atp3611
Rp3612
sg1928
g2
((lp3613
V\u67ab
p3614
aV\u98d2
p3615
aV\u8bbd
p3616
aV\u98ce
p3617
aV\u75af
p3618
aV\u98da
p3619
atp3620
Rp3621
sg1929
g2
((lp3622
g1927
aV\u7968
p3623
ag1928
atp3624
Rp3625
sg1927
g2
((lp3626
g3623
ag1929
ag1928
atp3627
Rp3628
sV\u9f50
p3629
g2
((lp3630
V\u6d4e
p3631
aV\u6324
p3632
aV\u5242
p3633
aV\u8dfb
p3634
atp3635
Rp3636
sg3631
g2
((lp3637
g3629
ag3632
ag3633
ag3634
atp3638
Rp3639
sg3632
g2
((lp3640
g3629
ag3633
ag3631
ag3634
atp3641
Rp3642
sg3633
g2
((lp3643
g3629
ag3632
ag3631
ag3634
atp3644
Rp3645
sg3634
g2
((lp3646
g3629
ag3633
ag3632
ag3631
atp3647
Rp3648
sg2033
g2
((lp3649
V\u65af
p3650
ag2030
ag2031
ag2032
atp3651
Rp3652
sg2031
g2
((lp3653
g3650
ag2030
ag2032
ag2033
atp3654
Rp3655
sg2032
g2
((lp3656
g3650
ag2030
ag2031
ag2033
atp3657
Rp3658
sg2030
g2
((lp3659
g3650
ag2031
ag2032
ag2033
atp3660
Rp3661
sV\u5947
p3662
g2
((lp3663
V\u501a
p3664
aV\u6905
p3665
aV\u5d0e
p3666
aV\u7eee
p3667
aV\u7578
p3668
atp3669
Rp3670
sg3667
g2
((lp3671
g3662
ag3664
ag3665
ag3666
ag3668
atp3672
Rp3673
sg3668
g2
((lp3674
g3662
ag3664
ag3665
ag3666
ag3667
atp3675
Rp3676
sg3666
g2
((lp3677
g3662
ag3664
ag3665
ag3667
ag3668
atp3678
Rp3679
sg3665
g2
((lp3680
g3662
ag3664
ag3666
ag3667
ag3668
atp3681
Rp3682
sg3664
g2
((lp3683
g3662
ag3665
ag3666
ag3667
ag3668
atp3684
Rp3685
sV\u5951
p3686
g2
((lp3687
V\u6954
p3688
aV\u63f3
p3689
atp3690
Rp3691
sg3688
g2
((lp3692
g3686
ag3689
atp3693
Rp3694
sg3689
g2
((lp3695
g3686
ag3688
atp3696
Rp3697
sV\u6390
p3698
g2
((lp3699
V\u9677
p3700
aV\u9985
p3701
atp3702
Rp3703
sg3700
g2
((lp3704
g3698
ag3701
atp3705
Rp3706
sg3701
g2
((lp3707
g3700
ag3698
atp3708
Rp3709
sV\u5343
p3710
g2
((lp3711
V\u7ea4
p3712
aV\u8fc1
p3713
atp3714
Rp3715
sg3712
g2
((lp3716
g3713
ag3710
atp3717
Rp3718
sg3713
g2
((lp3719
g3712
ag3710
atp3720
Rp3721
sV\u4f65
p3722
g2
((lp3723
V\u9669
p3724
aV\u68c0
p3725
aV\u7b7e
p3726
aV\u4fed
p3727
aV\u9a8c
p3728
aV\u8138
p3729
aV\u6361
p3730
atp3731
Rp3732
sg3724
g2
((lp3733
g3725
ag3726
ag3727
ag3728
ag3722
ag3729
ag3730
atp3734
Rp3735
sg3725
g2
((lp3736
g3724
ag3726
ag3727
ag3728
ag3722
ag3729
ag3730
atp3737
Rp3738
sg3728
g2
((lp3739
g3724
ag3725
ag3726
ag3727
ag3722
ag3729
ag3730
atp3740
Rp3741
sg3729
g2
((lp3742
g3724
ag3725
ag3726
ag3727
ag3728
ag3722
ag3730
atp3743
Rp3744
sg3726
g2
((lp3745
g3724
ag3725
ag3727
ag3728
ag3722
ag3729
ag3730
atp3746
Rp3747
sg3730
g2
((lp3748
g3724
ag3725
ag3726
ag3727
ag3728
ag3722
ag3729
atp3749
Rp3750
sg3727
g2
((lp3751
g3724
ag3725
ag3726
ag3728
ag3722
ag3729
ag3730
atp3752
Rp3753
sV\u6b20
p3754
g2
((lp3755
V\u574e
p3756
aV\u5439
p3757
aV\u996e
p3758
aV\u6b22
p3759
aV\u708a
p3760
atp3761
Rp3762
sg3760
g2
((lp3763
g3754
ag3756
ag3757
ag3758
ag3759
atp3764
Rp3765
sg3757
g2
((lp3766
g3754
ag3756
ag3758
ag3759
ag3760
atp3767
Rp3768
sg3759
g2
((lp3769
g3754
ag3756
ag3757
ag3758
ag3760
atp3770
Rp3771
sg3758
g2
((lp3772
g3754
ag3756
ag3757
ag3759
ag3760
atp3773
Rp3774
sg3756
g2
((lp3775
g3754
ag3757
ag3758
ag3759
ag3760
atp3776
Rp3777
sV\u4e54
p3778
g2
((lp3779
V\u4fa8 \u77eb
p3780
aV\u6865
p3781
aV\u8f7f
p3782
aV\u5a07
p3783
aV\u9a84
p3784
atp3785
Rp3786
sg3784
g2
((lp3787
g3780
ag3781
ag3782
ag3783
ag3778
atp3788
Rp3789
sg3781
g2
((lp3790
g3780
ag3782
ag3783
ag3778
ag3784
atp3791
Rp3792
sg3782
g2
((lp3793
g3780
ag3781
ag3783
ag3778
ag3784
atp3794
Rp3795
sg3783
g2
((lp3796
g3780
ag3781
ag3782
ag3778
ag3784
atp3797
Rp3798
sg3780
g2
((lp3799
g3781
ag3782
ag3783
ag3778
ag3784
atp3800
Rp3801
sV\u5207
p3802
g2
((lp3803
V\u5f7b
p3804
aV\u780c
p3805
aV\u6c8f
p3806
atp3807
Rp3808
sg3804
g2
((lp3809
g3805
ag3802
ag3806
atp3810
Rp3811
sg3805
g2
((lp3812
g3804
ag3806
ag3802
atp3813
Rp3814
sg3806
g2
((lp3815
g3804
ag3805
ag3802
atp3816
Rp3817
sV\u4e14
p3818
g2
((lp3819
V\u5480
p3820
aV\u5b9c
p3821
aV\u963b
p3822
aV\u8c0a
p3823
aV\u7ec4
p3824
atp3825
Rp3826
sg3822
g2
((lp3827
g3818
ag3820
ag3821
ag3823
ag3824
atp3828
Rp3829
sg3824
g2
((lp3830
g3818
ag3820
ag3821
ag3822
ag3823
atp3831
Rp3832
sg3823
g2
((lp3833
g3818
ag3820
ag3821
ag3822
ag3824
atp3834
Rp3835
sg3821
g2
((lp3836
g3818
ag3820
ag3822
ag3823
ag3824
atp3837
Rp3838
sg3820
g2
((lp3839
g3818
ag3821
ag3822
ag3823
ag3824
atp3840
Rp3841
sV\u9752
p3842
g2
((lp3843
V\u6e05
p3844
aV\u5029
p3845
aV\u731c
p3846
aV\u873b
p3847
aV\u60c5
p3848
aV\u775b
p3849
aV\u6674
p3850
atp3851
Rp3852
sg3844
g2
((lp3853
g3845
ag3846
ag3847
ag3848
ag3850
ag3849
ag3842
atp3854
Rp3855
sg3850
g2
((lp3856
g3844
ag3845
ag3846
ag3847
ag3848
ag3849
ag3842
atp3857
Rp3858
sg3849
g2
((lp3859
g3844
ag3845
ag3846
ag3847
ag3848
ag3850
ag3842
atp3860
Rp3861
sg3847
g2
((lp3862
g3844
ag3845
ag3846
ag3848
ag3850
ag3849
ag3842
atp3863
Rp3864
sg3846
g2
((lp3865
g3844
ag3845
ag3847
ag3848
ag3850
ag3849
ag3842
atp3866
Rp3867
sg3848
g2
((lp3868
g3844
ag3845
ag3846
ag3847
ag3850
ag3849
ag3842
atp3869
Rp3870
sg3845
g2
((lp3871
g3844
ag3846
ag3847
ag3848
ag3850
ag3849
ag3842
atp3872
Rp3873
sV\u9ad8
p3874
g2
((lp3875
V\u641e
p3876
aV\u7a3f
p3877
atp3878
Rp3879
sg3877
g2
((lp3880
g3876
ag3874
atp3881
Rp3882
sg3876
g2
((lp3883
g3877
ag3874
atp3884
Rp3885
sV\u54e5
p3886
g2
((lp3887
V\u9694
p3888
aV\u6b4c
p3889
aV\u55dd
p3890
aV\u9b32
p3891
aV\u878d
p3892
atp3893
Rp3894
sg3889
g2
((lp3895
g3888
ag3890
ag3891
ag3892
ag3886
atp3896
Rp3897
sg3891
g2
((lp3898
g3888
ag3889
ag3890
ag3892
ag3886
atp3899
Rp3900
sg3888
g2
((lp3901
g3889
ag3890
ag3891
ag3892
ag3886
atp3902
Rp3903
sg3892
g2
((lp3904
g3888
ag3889
ag3890
ag3891
ag3886
atp3905
Rp3906
sg3890
g2
((lp3907
g3888
ag3889
ag3891
ag3892
ag3886
atp3908
Rp3909
sV\u5404
p3910
g2
((lp3911
V\u9a86
p3912
aV\u8def
p3913
aV\u6d1b
p3914
aV\u7edc
p3915
atp3916
Rp3917
sg3912
g2
((lp3918
g3913
ag3915
ag3914
ag3910
atp3919
Rp3920
sg3913
g2
((lp3921
g3912
ag3915
ag3914
ag3910
atp3922
Rp3923
sg3914
g2
((lp3924
g3912
ag3913
ag3915
ag3910
atp3925
Rp3926
sg3915
g2
((lp3927
g3912
ag3913
ag3914
ag3910
atp3928
Rp3929
sV\u4e98
p3930
g2
((lp3931
V\u6e32
p3932
aV\u5ba3
p3933
aV\u6052
p3934
aV\u6966
p3935
aV\u55a7
p3936
atp3937
Rp3938
sg3934
g2
((lp3939
g3932
ag3933
ag3930
ag3935
ag3936
atp3940
Rp3941
sg3933
g2
((lp3942
g3932
ag3930
ag3934
ag3935
ag3936
atp3943
Rp3944
sg3936
g2
((lp3945
g3932
ag3933
ag3930
ag3934
ag3935
atp3946
Rp3947
sg3935
g2
((lp3948
g3932
ag3933
ag3930
ag3934
ag3936
atp3949
Rp3950
sg3932
g2
((lp3951
g3933
ag3930
ag3934
ag3935
ag3936
atp3952
Rp3953
sg2736
g2
((lp3954
g2732
ag2733
ag2734
ag2735
ag2741
ag2737
atp3955
Rp3956
sg2737
g2
((lp3957
g2732
ag2733
ag2734
ag2735
ag2736
ag2741
atp3958
Rp3959
sg2735
g2
((lp3960
g2732
ag2733
ag2734
ag2736
ag2741
ag2737
atp3961
Rp3962
sg2732
g2
((lp3963
g2733
ag2734
ag2735
ag2736
ag2741
ag2737
atp3964
Rp3965
sg2733
g2
((lp3966
g2732
ag2734
ag2735
ag2736
ag2741
ag2737
atp3967
Rp3968
sV\u66f4
p3969
g2
((lp3970
g3969
aV\u6897
p3971
aV\u786c
p3972
aV\u4fbf
p3973
atp3974
Rp3975
sg3972
g2
((lp3976
g3969
ag3973
ag3971
atp3977
Rp3978
sg3973
g2
((lp3979
g3969
ag3972
ag3971
atp3980
Rp3981
sg3971
g2
((lp3982
g3969
ag3972
ag3973
atp3983
Rp3984
sV\u5171
p3985
g2
((lp3986
V\u62f1
p3987
aV\u6d2a
p3988
aV\u54c4
p3989
atp3990
Rp3991
sg3988
g2
((lp3992
g3987
ag3985
ag3989
atp3993
Rp3994
sg3987
g2
((lp3995
g3985
ag3988
ag3989
atp3996
Rp3997
sg3989
g2
((lp3998
g3987
ag3985
ag3988
atp3999
Rp4000
sV\u52fe
p4001
g2
((lp4002
V\u6c9f
p4003
aV\u94a9
p4004
aV\u6784
p4005
atp4006
Rp4007
sg4005
g2
((lp4008
g4001
ag4003
ag4004
atp4009
Rp4010
sg4004
g2
((lp4011
g4001
ag4003
ag4005
atp4012
Rp4013
sg4003
g2
((lp4014
g4001
ag4004
ag4005
atp4015
Rp4016
sV\u53e4
p4017
g2
((lp4018
V\u67af
p4019
aV\u82e6
p4020
aV\u59d1
p4021
aV\u6cbd
p4022
atp4023
Rp4024
sg4019
g2
((lp4025
g4017
ag4020
ag4021
ag4022
atp4026
Rp4027
sg4020
g2
((lp4028
g4017
ag4019
ag4021
ag4022
atp4029
Rp4030
sg4021
g2
((lp4031
g4017
ag4020
ag4019
ag4022
atp4032
Rp4033
sg4022
g2
((lp4034
g4017
ag4020
ag4019
ag4021
atp4035
Rp4036
sV\u8c37
p4037
g2
((lp4038
V\u8c41
p4039
aV\u4fd7
p4040
aV\u6d74
p4041
aV\u88d5
p4042
atp4043
Rp4044
sg4040
g2
((lp4045
g4039
ag4041
ag4037
ag4042
atp4046
Rp4047
sg4042
g2
((lp4048
g4039
ag4040
ag4037
ag4041
atp4049
Rp4050
sg4039
g2
((lp4051
g4040
ag4037
ag4041
ag4042
atp4052
Rp4053
sg4041
g2
((lp4054
g4039
ag4040
ag4037
ag4042
atp4055
Rp4056
sV\u9aa8
p4057
g2
((lp4058
V\u6ed1
p4059
aV\u733e
p4060
atp4061
Rp4062
sg4059
g2
((lp4063
g4060
ag4057
atp4064
Rp4065
sg4060
g2
((lp4066
g4059
ag4057
atp4067
Rp4068
sV\u74dc
p4069
g2
((lp4070
V\u6293
p4071
aV\u5b64
p4072
aV\u72d0
p4073
atp4074
Rp4075
sg4072
g2
((lp4076
g4071
ag4069
ag4073
atp4077
Rp4078
sg4073
g2
((lp4079
g4072
ag4069
ag4071
atp4080
Rp4081
sg4071
g2
((lp4082
g4072
ag4069
ag4073
atp4083
Rp4084
sV\u5b98
p4085
g2
((lp4086
V\u9986
p4087
aV\u68fa
p4088
aV\u7ba1
p4089
atp4090
Rp4091
sg4087
g2
((lp4092
g4089
ag4085
ag4088
atp4093
Rp4094
sg4089
g2
((lp4095
g4087
ag4085
ag4088
atp4096
Rp4097
sg4088
g2
((lp4098
g4087
ag4085
ag4089
atp4099
Rp4100
sV\u8d2f
p4101
g2
((lp4102
V\u63bc
p4103
ag4101
aV\u60ef
p4104
atp4105
Rp4106
sg4104
g2
((lp4107
g4101
ag4103
atp4108
Rp4109
sg4103
g2
((lp4110
g4101
ag4104
atp4111
Rp4112
sV\u5e7f
p4113
g2
((lp4114
V\u77ff
p4115
aV\u65f7
p4116
atp4117
Rp4118
sg4116
g2
((lp4119
g4115
ag4113
atp4120
Rp4121
sg4115
g2
((lp4122
g4113
ag4116
atp4123
Rp4124
sV\u572d
p4125
g2
((lp4126
V\u6daf
p4127
aV\u6d3c
p4128
aV\u6842
p4129
aV\u4f73
p4130
aV\u5c01
p4131
aV\u5a03
p4132
aV\u7566
p4133
aV\u6302
p4134
aV\u86d9
p4135
aV\u5d16
p4136
atp4137
Rp4138
sg4135
g2
((lp4139
g4127
ag4125
ag4128
ag4129
ag4130
ag4131
ag4132
ag4133
ag4134
ag4136
atp4140
Rp4141
sg4132
g2
((lp4142
g4127
ag4125
ag4128
ag4129
ag4130
ag4131
ag4133
ag4134
ag4135
ag4136
atp4143
Rp4144
sg4128
g2
((lp4145
g4127
ag4125
ag4129
ag4130
ag4131
ag4132
ag4133
ag4134
ag4135
ag4136
atp4146
Rp4147
sg4129
g2
((lp4148
g4127
ag4125
ag4128
ag4131
ag4130
ag4132
ag4133
ag4134
ag4135
ag4136
atp4149
Rp4150
sg4134
g2
((lp4151
g4127
ag4125
ag4128
ag4129
ag4130
ag4131
ag4132
ag4133
ag4135
ag4136
atp4152
Rp4153
sg4130
g2
((lp4154
g4127
ag4125
ag4128
ag4129
ag4131
ag4132
ag4133
ag4134
ag4135
ag4136
atp4155
Rp4156
sg4127
g2
((lp4157
g4125
ag4128
ag4129
ag4130
ag4131
ag4132
ag4133
ag4134
ag4135
ag4136
atp4158
Rp4159
sg4136
g2
((lp4160
g4127
ag4125
ag4128
ag4129
ag4130
ag4131
ag4132
ag4133
ag4134
ag4135
atp4161
Rp4162
sg4131
g2
((lp4163
g4127
ag4125
ag4128
ag4129
ag4130
ag4132
ag4133
ag4134
ag4135
ag4136
atp4164
Rp4165
sg4133
g2
((lp4166
g4127
ag4125
ag4128
ag4129
ag4130
ag4131
ag4132
ag4134
ag4135
ag4136
atp4167
Rp4168
sg2239
g2
((lp4169
g2240
ag2241
ag2242
ag2243
ag2244
aV\u9b4f
p4170
ag2245
atp4171
Rp4172
sg2241
g2
((lp4173
g2239
ag2240
ag2242
ag2243
ag2244
ag4170
ag2245
atp4174
Rp4175
sg2243
g2
((lp4176
g2239
ag2240
ag2241
ag2242
ag2244
ag4170
ag2245
atp4177
Rp4178
sg2245
g2
((lp4179
g2239
ag2240
ag2241
ag2242
ag2243
ag2244
ag4170
atp4180
Rp4181
sg2242
g2
((lp4182
g2239
ag2240
ag2241
ag2243
ag2244
ag4170
ag2245
atp4183
Rp4184
sg2240
g2
((lp4185
g2239
ag2241
ag2242
ag2243
ag2244
ag4170
ag2245
atp4186
Rp4187
sg2244
g2
((lp4188
g1816
ag1817
ag1818
aV\u659f
p4189
ag1820
atp4190
Rp4191
sV\u8d35
p4192
g2
((lp4193
V\u6e83
p4194
aV\u9057
p4195
atp4196
Rp4197
sg4194
g2
((lp4198
g4195
ag4192
atp4199
Rp4200
sg4195
g2
((lp4201
g4194
ag4192
atp4202
Rp4203
sV\u5459
p4204
g2
((lp4205
V\u7978
p4206
aV\u5250
p4207
aV\u6da1
p4208
aV\u5a32
p4209
aV\u9505
p4210
atp4211
Rp4212
sg4209
g2
((lp4213
g4206
ag4207
ag4208
ag4210
ag4204
atp4214
Rp4215
sg4206
g2
((lp4216
g4207
ag4208
ag4209
ag4210
ag4204
atp4217
Rp4218
sg4207
g2
((lp4219
g4206
ag4208
ag4209
ag4210
ag4204
atp4220
Rp4221
sg4210
g2
((lp4222
g4206
ag4207
ag4208
ag4209
ag4204
atp4223
Rp4224
sg4208
g2
((lp4225
g4206
ag4207
ag4209
ag4210
ag4204
atp4226
Rp4227
sV\u679c
p4228
g2
((lp4229
V\u8bfe
p4230
aV\u9897
p4231
aV\u68f5
p4232
aV\u7a1e
p4233
atp4234
Rp4235
sg4232
g2
((lp4236
g4230
ag4228
ag4233
ag4231
atp4237
Rp4238
sg4231
g2
((lp4239
g4230
ag4228
ag4232
ag4233
atp4240
Rp4241
sg4230
g2
((lp4242
g4228
ag4233
ag4232
ag4231
atp4243
Rp4244
sg4233
g2
((lp4245
g4230
ag4228
ag4232
ag4231
atp4246
Rp4247
sV\u4ea5
p4248
g2
((lp4249
V\u6838
p4250
aV\u8be5
p4251
aV\u54b3
p4252
aV\u523b
p4253
atp4254
Rp4255
sg4251
g2
((lp4256
g4250
ag4252
ag4248
ag4253
atp4257
Rp4258
sg4250
g2
((lp4259
g4251
ag4252
ag4248
ag4253
atp4260
Rp4261
sg4252
g2
((lp4262
g4250
ag4251
ag4248
ag4253
atp4263
Rp4264
sg4253
g2
((lp4265
g4250
ag4251
ag4252
ag4248
atp4266
Rp4267
sV\u5408
p4268
g2
((lp4269
V\u54c8
p4270
aV\u7b54
p4271
aV\u642d
p4272
aV\u62fe
p4273
aV\u7ed9 \u5854
p4274
aV\u6070
p4275
atp4276
Rp4277
sg4270
g2
((lp4278
g4271
ag4272
ag4273
ag4268
ag4274
ag4275
atp4279
Rp4280
sg4273
g2
((lp4281
g4270
ag4271
ag4272
ag4268
ag4274
ag4275
atp4282
Rp4283
sg4271
g2
((lp4284
g4270
ag4272
ag4273
ag4268
ag4274
ag4275
atp4285
Rp4286
sg4274
g2
((lp4287
g4270
ag4271
ag4272
ag4273
ag4268
ag4275
atp4288
Rp4289
sg4272
g2
((lp4290
g4270
ag4271
ag4273
ag4268
ag4274
ag4275
atp4291
Rp4292
sg4275
g2
((lp4293
g4270
ag4271
ag4272
ag4273
ag4268
ag4274
atp4294
Rp4295
sV\u66f7
p4296
g2
((lp4297
V\u7aed
p4298
aV\u63ed
p4299
aV\u6e34
p4300
aV\u559d
p4301
aV\u8910
p4302
atp4303
Rp4304
sg4300
g2
((lp4305
g4298
ag4299
ag4301
ag4296
ag4302
atp4306
Rp4307
sg4301
g2
((lp4308
g4298
ag4299
ag4300
ag4296
ag4302
atp4309
Rp4310
sg4298
g2
((lp4311
g4299
ag4300
ag4301
ag4296
ag4302
atp4312
Rp4313
sg4302
g2
((lp4314
g4298
ag4299
ag4300
ag4301
ag4296
atp4315
Rp4316
sg4299
g2
((lp4317
g4298
ag4300
ag4301
ag4296
ag4302
atp4318
Rp4319
sV\u9ed1
p4320
g2
((lp4321
V\u9edd
p4322
aV\u9ed8
p4323
aV\u58a8
p4324
atp4325
Rp4326
sg4323
g2
((lp4327
g4320
ag4322
ag4324
atp4328
Rp4329
sg4324
g2
((lp4330
g4320
ag4322
ag4323
atp4331
Rp4332
sg4322
g2
((lp4333
g4320
ag4323
ag4324
atp4334
Rp4335
sV\u80e1
p4336
g2
((lp4337
V\u6e56
p4338
aV\u8774
p4339
aV\u7cca
p4340
atp4341
Rp4342
sg4340
g2
((lp4343
g4336
ag4338
ag4339
atp4344
Rp4345
sg4339
g2
((lp4346
g4336
ag4338
ag4340
atp4347
Rp4348
sg4338
g2
((lp4349
g4336
ag4339
ag4340
atp4350
Rp4351
sV\u864e
p4352
g2
((lp4353
V\u8651
p4354
aV\u865a
p4355
atp4356
Rp4357
sV\u865a
p4358
g2
((lp4359
g4354
aV\u864e
p4360
atp4361
Rp4362
sV\u8651
p4363
g2
((lp4364
g4360
ag4355
atp4365
Rp4366
sV\u8654
p4367
g2
((lp4368
g4363
ag4352
ag4358
atp4369
Rp4370
sV\u6237
p4371
g2
((lp4372
V\u7089
p4373
aV\u5992
p4374
aV\u623f
p4375
aV\u9a74
p4376
aV\u5e90
p4377
atp4378
Rp4379
sg4377
g2
((lp4380
g4371
ag4373
ag4374
ag4375
ag4376
atp4381
Rp4382
sg4373
g2
((lp4383
g4371
ag4374
ag4375
ag4376
ag4377
atp4384
Rp4385
sg4375
g2
((lp4386
g4371
ag4373
ag4374
ag4376
ag4377
atp4387
Rp4388
sg4374
g2
((lp4389
g4371
ag4373
ag4375
ag4376
ag4377
atp4390
Rp4391
sg4376
g2
((lp4392
g4371
ag4373
ag4374
ag4375
ag4377
atp4393
Rp4394
sV\u5942
p4395
g2
((lp4396
V\u6362
p4397
aV\u7115
p4398
aV\u6da3
p4399
atp4400
Rp4401
sg4398
g2
((lp4402
g4397
ag4399
ag4395
atp4403
Rp4404
sg4399
g2
((lp4405
g4397
ag4398
ag4395
atp4406
Rp4407
sg4397
g2
((lp4408
g4398
ag4399
ag4395
atp4409
Rp4410
sV\u8352
p4411
g2
((lp4412
V\u8c0e
p4413
aV\u614c
p4414
atp4415
Rp4416
sg4414
g2
((lp4417
g4413
ag4411
atp4418
Rp4419
sg4413
g2
((lp4420
g4414
ag4411
atp4421
Rp4422
sV\u7070
p4423
g2
((lp4424
V\u8bd9
p4425
aV\u70ad
p4426
aV\u6062
p4427
aV\u78b3
p4428
atp4429
Rp4430
sg4425
g2
((lp4431
g4428
ag4426
ag4427
ag4423
atp4432
Rp4433
sg4427
g2
((lp4434
g4425
ag4428
ag4426
ag4423
atp4435
Rp4436
sg4428
g2
((lp4437
g4425
ag4426
ag4427
ag4423
atp4438
Rp4439
sg4426
g2
((lp4440
g4425
ag4428
ag4427
ag4423
atp4441
Rp4442
sg155
g2
((lp4443
g151
ag152
ag153
ag154
ag3376
ag156
atp4444
Rp4445
sg156
g2
((lp4446
g151
ag152
ag153
ag154
ag155
ag3376
atp4447
Rp4448
sg153
g2
((lp4449
g151
ag152
ag154
ag155
ag3376
ag156
atp4450
Rp4451
sg151
g2
((lp4452
g152
ag153
ag154
ag155
ag3376
ag156
atp4453
Rp4454
sg152
g2
((lp4455
g151
ag153
ag154
ag155
ag3376
ag156
atp4456
Rp4457
sV\u53ca
p4458
g2
((lp4459
V\u6c72
p4460
aV\u573e
p4461
aV\u7ea7
p4462
aV\u6781
p4463
aV\u5438
p4464
atp4465
Rp4466
sg4462
g2
((lp4467
g4460
ag4458
ag4461
ag4463
ag4464
atp4468
Rp4469
sg4463
g2
((lp4470
g4460
ag4458
ag4461
ag4462
ag4464
atp4471
Rp4472
sg4460
g2
((lp4473
g4458
ag4461
ag4462
ag4463
ag4464
atp4474
Rp4475
sg4464
g2
((lp4476
g4460
ag4458
ag4461
ag4462
ag4463
atp4477
Rp4478
sg4461
g2
((lp4479
g4460
ag4458
ag4462
ag4463
ag4464
atp4480
Rp4481
sV\u5409
p4482
g2
((lp4483
V\u6854
p4484
aV\u7ed3
p4485
ag4482
aV\u6d01
p4486
atp4487
Rp4488
sg4485
g2
((lp4489
g4484
ag4482
ag4486
atp4490
Rp4491
sg4486
g2
((lp4492
g4484
ag4485
ag4482
atp4493
Rp4494
sg4484
g2
((lp4495
g4485
ag4482
ag4486
atp4496
Rp4497
sV\u6025
p4498
g2
((lp4499
V\u763e
p4500
aV\u9690
p4501
aV\u7a33
p4502
atp4503
Rp4504
sg4502
g2
((lp4505
g4500
ag4501
ag4498
atp4506
Rp4507
sg4501
g2
((lp4508
g4500
ag4498
ag4502
atp4509
Rp4510
sg4500
g2
((lp4511
g4501
ag4498
ag4502
atp4512
Rp4513
sV\u51e0
p4514
g2
((lp4515
V\u8ba5
p4516
aV\u808c
p4517
aV\u9965
p4518
aV\u51ef
p4519
atp4520
Rp4521
sg4516
g2
((lp4522
g4517
ag4518
ag4519
ag4514
atp4523
Rp4524
sg4519
g2
((lp4525
g4516
ag4518
ag4517
ag4514
atp4526
Rp4527
sg4518
g2
((lp4528
g4516
ag4517
ag4519
ag4514
atp4529
Rp4530
sg4517
g2
((lp4531
g4516
ag4518
ag4519
ag4514
atp4532
Rp4533
sV\u5df1
p4534
g2
((lp4535
V\u8bb0
p4536
aV\u5983
p4537
aV\u7eaa
p4538
atp4539
Rp4540
sg4536
g2
((lp4541
g4534
ag4538
ag4537
atp4542
Rp4543
sg4538
g2
((lp4544
g4536
ag4534
ag4537
atp4545
Rp4546
sg4537
g2
((lp4547
g4536
ag4534
ag4538
atp4548
Rp4549
sV\u65e2
p4550
g2
((lp4551
V\u6982
p4552
aV\u6168
p4553
aV\u6e89
p4554
atp4555
Rp4556
sg4554
g2
((lp4557
g4552
ag4550
ag4553
atp4558
Rp4559
sg4553
g2
((lp4560
g4552
ag4550
ag4554
atp4561
Rp4562
sg4552
g2
((lp4563
g4553
ag4550
ag4554
atp4564
Rp4565
sV\u52a0
p4566
g2
((lp4567
V\u67b6
p4568
aV\u9a7e
p4569
atp4570
Rp4571
sg4569
g2
((lp4572
g4568
ag4566
atp4573
Rp4574
sg4568
g2
((lp4575
g4566
ag4569
atp4576
Rp4577
sV\u5939
p4578
g2
((lp4579
V\u988a
p4580
aV\u5ce1
p4581
aV\u835a
p4582
aV\u72ed
p4583
aV\u631f
p4584
aV\u4fa0
p4585
atp4586
Rp4587
sg4583
g2
((lp4588
g4580
ag4581
ag4582
ag4578
ag4584
ag4585
atp4589
Rp4590
sg4581
g2
((lp4591
g4580
ag4582
ag4578
ag4583
ag4584
ag4585
atp4592
Rp4593
sg4584
g2
((lp4594
g4580
ag4581
ag4582
ag4578
ag4583
ag4585
atp4595
Rp4596
sg4585
g2
((lp4597
g4580
ag4581
ag4582
ag4578
ag4583
ag4584
atp4598
Rp4599
sg4582
g2
((lp4600
g4580
ag4581
ag4578
ag4583
ag4584
ag4585
atp4601
Rp4602
sg4580
g2
((lp4603
g4581
ag4582
ag4578
ag4583
ag4584
ag4585
atp4604
Rp4605
sV\u5bb6
p4606
g2
((lp4607
V\u5ac1
p4608
aV\u7a3c
p4609
atp4610
Rp4611
sg4609
g2
((lp4612
g4606
ag4608
atp4613
Rp4614
sg4608
g2
((lp4615
g4606
ag4609
atp4616
Rp4617
sV\u517c
p4618
g2
((lp4619
V\u5acc
p4620
aV\u8d5a
p4621
aV\u8c26
p4622
aV\u5ec9
p4623
aV\u6b49
p4624
atp4625
Rp4626
sg4624
g2
((lp4627
g4620
ag4621
ag4618
ag4622
ag4623
atp4628
Rp4629
sg4621
g2
((lp4630
g4620
ag4618
ag4622
ag4623
ag4624
atp4631
Rp4632
sg4620
g2
((lp4633
g4621
ag4618
ag4622
ag4623
ag4624
atp4634
Rp4635
sg4622
g2
((lp4636
g4620
ag4621
ag4618
ag4623
ag4624
atp4637
Rp4638
sg4623
g2
((lp4639
g4620
ag4621
ag4618
ag4622
ag4624
atp4640
Rp4641
sg2368
g2
((lp4642
V\u73b0
p4643
ag2366
ag2365
ag2367
ag2369
atp4644
Rp4645
sg2366
g2
((lp4646
g4643
ag2365
ag2367
ag2368
ag2369
atp4647
Rp4648
sg2365
g2
((lp4649
g4643
ag2366
ag2367
ag2368
ag2369
atp4650
Rp4651
sg2367
g2
((lp4652
g4643
ag2366
ag2365
ag2368
ag2369
atp4653
Rp4654
sg2369
g2
((lp4655
g4643
ag2366
ag2365
ag2367
ag2368
atp4656
Rp4657
sV\u5efa
p4658
g2
((lp4659
V\u5065
p4660
aV\u952e
p4661
atp4662
Rp4663
sg4660
g2
((lp4664
V\u952e
p4665
atp4666
Rp4667
sg1572
g2
((lp4668
g1567
ag1568
ag1569
aV\u94b1
p4669
ag1570
ag1571
atp4670
Rp4671
sg1570
g2
((lp4672
g1567
ag1568
ag1569
ag4669
ag1571
ag1572
atp4673
Rp4674
sg1567
g2
((lp4675
g1568
ag1569
ag4669
ag1570
ag1571
ag1572
atp4676
Rp4677
sg1569
g2
((lp4678
g1567
ag1568
ag4669
ag1570
ag1571
ag1572
atp4679
Rp4680
sg1568
g2
((lp4681
g1567
ag1569
ag4669
ag1570
ag1571
ag1572
atp4682
Rp4683
sg1571
g2
((lp4684
g1567
ag1568
ag1569
ag4669
ag1570
ag1572
atp4685
Rp4686
sV\u50f5
p4687
g2
((lp4688
V\u7586
p4689
atp4690
Rp4691
sg4689
g2
((lp4692
g4687
atp4693
Rp4694
sV\u5956
p4695
g2
((lp4696
V\u6868
p4697
aV\u9171
p4698
aV\u6d46
p4699
atp4700
Rp4701
sg4697
g2
((lp4702
g4699
ag4698
ag4695
atp4703
Rp4704
sg4699
g2
((lp4705
g4697
ag4698
ag4695
atp4706
Rp4707
sg4698
g2
((lp4708
g4697
ag4695
ag4699
atp4709
Rp4710
sV\u4ea4
p4711
g2
((lp4712
V\u54ac
p4713
aV\u90ca
p4714
aV\u80f6
p4715
aV\u997a
p4716
aV\u6821
p4717
aV\u72e1
p4718
aV\u7ede
p4719
aV\u6548 \u8de4
p4720
atp4721
Rp4722
sg4718
g2
((lp4723
g4713
ag4714
ag4715
ag4716
ag4717
ag4719
ag4711
ag4720
atp4724
Rp4725
sg4717
g2
((lp4726
g4713
ag4714
ag4715
ag4716
ag4718
ag4719
ag4711
ag4720
atp4727
Rp4728
sg4714
g2
((lp4729
g4713
ag4715
ag4716
ag4717
ag4718
ag4719
ag4711
ag4720
atp4730
Rp4731
sg4715
g2
((lp4732
g4713
ag4714
ag4716
ag4717
ag4718
ag4719
ag4711
ag4720
atp4733
Rp4734
sg4720
g2
((lp4735
g4713
ag4714
ag4715
ag4716
ag4717
ag4718
ag4719
ag4711
atp4736
Rp4737
sg4716
g2
((lp4738
g4713
ag4714
ag4715
ag4717
ag4718
ag4719
ag4711
ag4720
atp4739
Rp4740
sg4719
g2
((lp4741
g4713
ag4714
ag4715
ag4716
ag4717
ag4718
ag4711
ag4720
atp4742
Rp4743
sg4713
g2
((lp4744
g4714
ag4715
ag4716
ag4717
ag4718
ag4719
ag4711
ag4720
atp4745
Rp4746
sV\u7686
p4747
g2
((lp4748
V\u6977
p4749
aV\u8c10
p4750
atp4751
Rp4752
sg4749
g2
((lp4753
g4750
ag4747
atp4754
Rp4755
sg4750
g2
((lp4756
g4749
ag4747
atp4757
Rp4758
sV\u6377
p4759
g2
((lp4760
V\u776b
p4761
atp4762
Rp4763
sg4761
g2
((lp4764
g4759
atp4765
Rp4766
sV\u4ecb
p4767
g2
((lp4768
V\u4ef7
p4769
aV\u9636
p4770
atp4771
Rp4772
sg4769
g2
((lp4773
g4767
ag4770
atp4774
Rp4775
sg4770
g2
((lp4776
g4767
ag4769
atp4777
Rp4778
sV\u4eca
p4779
g2
((lp4780
V\u541f
p4781
aV\u8d2a
p4782
aV\u5ff5
p4783
aV\u5997
p4784
atp4785
Rp4786
sg4782
g2
((lp4787
V\u8d22
p4788
aV\u8d1d
p4789
aV\u8d1f
p4790
aV\u8d3a
p4791
aV\u8d26
p4792
aV\u8d4a
p4793
aV\u8d2b
p4794
aV\u8d23
p4795
aV\u8d27
p4796
atp4797
Rp4798
sg4783
g2
((lp4799
g4781
ag4782
ag4784
ag4779
atp4800
Rp4801
sg4784
g2
((lp4802
g4781
ag4782
ag4783
ag4779
atp4803
Rp4804
sg4781
g2
((lp4805
g4782
ag4783
ag4784
ag4779
atp4806
Rp4807
sV\u65a4
p4808
g2
((lp4809
V\u54f2
p4810
aV\u6298
p4811
aV\u8fd1
p4812
aV\u6d59
p4813
aV\u6790
p4814
aV\u62c6
p4815
aV\u6670
p4816
atp4817
Rp4818
sg4811
g2
((lp4819
g4810
ag4814
ag4808
ag4812
ag4813
ag4815
ag4816
atp4820
Rp4821
sg4815
g2
((lp4822
g4810
ag4808
ag4811
ag4812
ag4813
ag4814
ag4816
atp4823
Rp4824
sg4814
g2
((lp4825
g4810
ag4808
ag4811
ag4812
ag4813
ag4815
ag4816
atp4826
Rp4827
sg4812
g2
((lp4828
g4810
ag4808
ag4811
ag4813
ag4814
ag4815
ag4816
atp4829
Rp4830
sg4813
g2
((lp4831
g4810
ag4808
ag4811
ag4812
ag4815
ag4814
ag4816
atp4832
Rp4833
sg4810
g2
((lp4834
g4808
ag4811
ag4812
ag4815
ag4814
ag4813
ag4816
atp4835
Rp4836
sg4816
g2
((lp4837
g4810
ag4808
ag4811
ag4812
ag4815
ag4814
ag4813
atp4838
Rp4839
sV\u5807
p4840
g2
((lp4841
V\u8c28
p4842
aV\u52e4
p4843
atp4844
Rp4845
sg4842
g2
((lp4846
g4843
ag4840
atp4847
Rp4848
sg4843
g2
((lp4849
g4842
ag4840
atp4850
Rp4851
sV\u4eac
p4852
g2
((lp4853
V\u667e
p4854
aV\u60ca
p4855
aV\u666f
p4856
aV\u63a0
p4857
aV\u51c9
p4858
aV\u8c05
p4859
atp4860
Rp4861
sg4858
g2
((lp4862
g4854
ag4855
ag4856
ag4857
ag4852
ag4859
atp4863
Rp4864
sg4859
g2
((lp4865
g4854
ag4855
ag4856
ag4857
ag4858
ag4852
atp4866
Rp4867
sg4854
g2
((lp4868
g4855
ag4856
ag4857
ag4858
ag4852
ag4859
atp4869
Rp4870
sg4856
g2
((lp4871
g4854
ag4855
ag4857
ag4858
ag4852
ag4859
atp4872
Rp4873
sg4855
g2
((lp4874
g4854
ag4856
ag4857
ag4858
ag4852
ag4859
atp4875
Rp4876
sg4857
g2
((lp4877
g4854
ag4855
ag4856
ag4858
ag4852
ag4859
atp4878
Rp4879
sV\u7ecf
p4880
g2
((lp4881
V\u6cfe
p4882
aV\u5f84
p4883
atp4884
Rp4885
sV\u830e
p4886
g2
((lp4887
V\u6cfe
p4888
aV\u5f84
p4889
aV\u52b2
p4890
ag4880
atp4891
Rp4892
sg4888
g2
((lp4893
V\u7ecf
p4894
ag4883
atp4895
Rp4896
sg4889
g2
((lp4897
g4882
ag4894
atp4898
Rp4899
sg4890
g2
((lp4900
g4888
ag4889
ag4880
ag4886
atp4901
Rp4902
sV\u7adf
p4903
g2
((lp4904
V\u5883
p4905
aV\u955c
p4906
atp4907
Rp4908
sg4906
g2
((lp4909
g4903
ag4905
atp4910
Rp4911
sg4905
g2
((lp4912
g4903
ag4906
atp4913
Rp4914
sV\u656c
p4915
g2
((lp4916
V\u8b66
p4917
aV\u5106
p4918
aV\u64ce
p4919
atp4920
Rp4921
sg4917
g2
((lp4922
g4918
ag4915
ag4919
atp4923
Rp4924
sg4919
g2
((lp4925
g4917
ag4918
ag4915
atp4926
Rp4927
sg4918
g2
((lp4928
g4917
ag4915
ag4919
atp4929
Rp4930
sV\u5c45
p4931
g2
((lp4932
V\u5267
p4933
aV\u636e
p4934
atp4935
Rp4936
sg4934
g2
((lp4937
g4933
ag4931
atp4938
Rp4939
sg4933
g2
((lp4940
g4931
ag4934
atp4941
Rp4942
sV\u53e5
p4943
g2
((lp4944
V\u7538
p4945
atp4946
Rp4947
sV\u82df
p4948
g2
((lp4949
g4943
atp4950
Rp4951
sV\u5de8
p4952
g2
((lp4953
V\u8ddd
p4954
aV\u67dc
p4955
aV\u77e9
p4956
aV\u62d2
p4957
atp4958
Rp4959
sg4956
g2
((lp4960
g4954
ag4955
ag4957
ag4952
atp4961
Rp4962
sg4955
g2
((lp4963
g4954
ag4956
ag4957
ag4952
atp4964
Rp4965
sg4957
g2
((lp4966
g4954
ag4955
ag4956
ag4952
atp4967
Rp4968
sg4954
g2
((lp4969
g4955
ag4956
ag4957
ag4952
atp4970
Rp4971
sV\u5177
p4972
g2
((lp4973
V\u4ff1
p4974
aV\u60e7
p4975
atp4976
Rp4977
sg4975
g2
((lp4978
g4974
ag4972
atp4979
Rp4980
sg4974
g2
((lp4981
g4972
ag4975
atp4982
Rp4983
sV\u5026
p4984
g2
((lp4985
V\u7737
p4986
aV\u5377
p4987
aV\u5238
p4988
aV\u8a89
p4989
aV\u8a8a
p4990
aV\u8737
p4991
atp4992
Rp4993
sg4991
g2
((lp4994
g4986
ag4984
ag4987
ag4988
ag4989
ag4990
atp4995
Rp4996
sg4986
g2
((lp4997
g4984
ag4987
ag4988
ag4989
ag4990
ag4991
atp4998
Rp4999
sg4987
g2
((lp5000
g4986
ag4984
ag4988
ag4989
ag4990
ag4991
atp5001
Rp5002
sg4988
g2
((lp5003
g4986
ag4984
ag4987
ag4989
ag4990
ag4991
atp5004
Rp5005
sg4989
g2
((lp5006
g4986
ag4984
ag4987
ag4988
ag4990
ag4991
atp5007
Rp5008
sg4990
g2
((lp5009
g4986
ag4984
ag4987
ag4988
ag4989
ag4991
atp5010
Rp5011
sV\u8bc0
p5012
g2
((lp5013
V\u51b3
p5014
aV\u5757
p5015
aV\u5feb
p5016
aV\u7f3a
p5017
atp5018
Rp5019
sg5014
g2
((lp5020
g5015
ag5016
ag5012
ag5017
atp5021
Rp5022
sg5016
g2
((lp5023
g5014
ag5015
ag5012
ag5017
atp5024
Rp5025
sg5015
g2
((lp5026
g5014
ag5016
ag5012
ag5017
atp5027
Rp5028
sg5017
g2
((lp5029
g5014
ag5015
ag5016
ag5012
atp5030
Rp5031
sV\u53a5
p5032
g2
((lp5033
V\u7357
p5034
aV\u6a5b
p5035
atp5036
Rp5037
sg5035
g2
((lp5038
g5032
ag5034
atp5039
Rp5040
sg5034
g2
((lp5041
g5032
ag5035
atp5042
Rp5043
sV\u519b
p5044
g2
((lp5045
V\u6325
p5046
aV\u6655
p5047
aV\u6656
p5048
aV\u8f89
p5049
aV\u6d51
p5050
atp5051
Rp5052
sg5050
g2
((lp5053
g5046
ag5047
ag5048
ag5049
ag5044
atp5054
Rp5055
sg5046
g2
((lp5056
g5047
ag5048
ag5049
ag5044
ag5050
atp5057
Rp5058
sg5047
g2
((lp5059
g5046
ag5048
ag5049
ag5044
ag5050
atp5060
Rp5061
sg5048
g2
((lp5062
g5046
ag5047
ag5049
ag5044
ag5050
atp5063
Rp5064
sg5049
g2
((lp5065
g5046
ag5048
ag5047
ag5044
ag5050
atp5066
Rp5067
sg106
g2
((lp5068
g105
aV\u7fa4
p5069
atp5070
Rp5071
sg105
g2
((lp5072
g5069
ag106
atp5073
Rp5074
sV\u5cfb
p5075
g2
((lp5076
V\u7ae3
p5077
aV\u4fca
p5078
aV\u9a8f
p5079
atp5080
Rp5081
sg5078
g2
((lp5082
g5077
ag5075
ag5079
atp5083
Rp5084
sg5079
g2
((lp5085
g5077
ag5075
ag5078
atp5086
Rp5087
sg5077
g2
((lp5088
g5075
ag5078
ag5079
atp5089
Rp5090
sV\u5f00
p5091
g2
((lp5092
V\u578b
p5093
aV\u5211
p5094
aV\u5f62
p5095
atp5096
Rp5097
sg5095
g2
((lp5098
g5093
ag5094
ag5091
atp5099
Rp5100
sg5094
g2
((lp5101
g5093
ag5095
ag5091
atp5102
Rp5103
sg5093
g2
((lp5104
g5094
ag5095
ag5091
atp5105
Rp5106
sV\u4ea2
p5107
g2
((lp5108
V\u5751
p5109
aV\u6297
p5110
aV\u7095
p5111
atp5112
Rp5113
sg5109
g2
((lp5114
g5107
ag5110
ag5111
atp5115
Rp5116
sg5111
g2
((lp5117
g5109
ag5107
ag5110
atp5118
Rp5119
sg5110
g2
((lp5120
g5109
ag5107
ag5111
atp5121
Rp5122
sV\u6556
p5123
g2
((lp5124
V\u50b2
p5125
aV\u9068
p5126
aV\u71ac
p5127
aV\u8d58
p5128
atp5129
Rp5130
sg5127
g2
((lp5131
g5125
ag5126
ag5123
ag5128
atp5132
Rp5133
sg5125
g2
((lp5134
g5126
ag5123
ag5127
ag5128
atp5135
Rp5136
sg5126
g2
((lp5137
g5125
ag5123
ag5127
ag5128
atp5138
Rp5139
sg5128
g2
((lp5140
g5125
ag5126
ag5123
ag5127
atp5141
Rp5142
sV\u767d
p5143
g2
((lp5144
V\u4ed3
p5145
aV\u67aa
p5146
aV\u6ca7
p5147
aV\u62a2
p5148
aV\u4f27
p5149
atp5150
Rp5151
sV\u6015
p5152
g2
((lp5153
g5143
aV\u964c
p5154
aV\u62cd
p5155
aV\u5e15
p5156
aV\u4f2f
p5157
aV\u6cca
p5158
aV\u67cf
p5159
aV\u73c0
p5160
atp5161
Rp5162
sg5156
g2
((lp5163
g5152
ag5143
ag5154
ag5155
ag5159
ag5157
ag5158
ag5160
atp5164
Rp5165
sg5157
g2
((lp5166
g5152
ag5143
ag5154
ag5155
ag5156
ag5159
ag5158
ag5160
atp5167
Rp5168
sg5155
g2
((lp5169
g5152
ag5143
ag5154
ag5156
ag5157
ag5158
ag5159
ag5160
atp5170
Rp5171
sg5158
g2
((lp5172
g5152
ag5143
ag5154
ag5155
ag5156
ag5157
ag5159
ag5160
atp5173
Rp5174
sg5159
g2
((lp5175
g5152
ag5143
ag5154
ag5155
ag5156
ag5157
ag5158
ag5160
atp5176
Rp5177
sg5154
g2
((lp5178
g5152
ag5143
ag5155
ag5156
ag5157
ag5158
ag5159
ag5160
atp5179
Rp5180
sg5160
g2
((lp5181
g5152
ag5143
ag5154
ag5155
ag5156
ag5157
ag5158
ag5159
atp5182
Rp5183
sV\u4f70
p5184
g2
((lp5185
V\u7f29
p5186
aV\u5bbf
p5187
atp5188
Rp5189
sg5187
g2
((lp5190
g5184
ag5186
atp5191
Rp5192
sg5186
g2
((lp5193
g5184
ag5187
atp5194
Rp5195
sV\u529e
p5196
g2
((lp5197
V\u82cf
p5198
aV\u534f
p5199
aV\u80c1
p5200
atp5201
Rp5202
sg5198
g2
((lp5203
g5196
ag5199
ag5200
atp5204
Rp5205
sg5199
g2
((lp5206
g5196
ag5198
ag5200
atp5207
Rp5208
sg5200
g2
((lp5209
g5196
ag5198
ag5199
atp5210
Rp5211
sV\u90a6
p5212
g2
((lp5213
V\u5e2e
p5214
aV\u7ed1
p5215
atp5216
Rp5217
sg5214
g2
((lp5218
g5215
ag5212
atp5219
Rp5220
sg5215
g2
((lp5221
g5214
ag5212
atp5222
Rp5223
sV\u5305
p5224
g2
((lp5225
V\u888d
p5226
aV\u62b1
p5227
aV\u9971
p5228
aV\u70ae
p5229
aV\u8dd1
p5230
aV\u6ce1
p5231
aV\u5228
p5232
aV\u82de
p5233
aV\u5486
p5234
atp5235
Rp5236
sg5230
g2
((lp5237
g5224
ag5227
ag5226
ag5228
ag5229
ag5232
ag5231
ag5233
ag5234
atp5238
Rp5239
sg5229
g2
((lp5240
g5224
ag5227
ag5226
ag5228
ag5230
ag5231
ag5232
ag5233
ag5234
atp5241
Rp5242
sg5231
g2
((lp5243
g5224
ag5227
ag5226
ag5228
ag5229
ag5230
ag5232
ag5233
ag5234
atp5244
Rp5245
sg5227
g2
((lp5246
g5224
ag5226
ag5228
ag5229
ag5230
ag5231
ag5232
ag5233
ag5234
atp5247
Rp5248
sg5226
g2
((lp5249
g5224
ag5227
ag5228
ag5229
ag5230
ag5231
ag5232
ag5233
ag5234
atp5250
Rp5251
sg5228
g2
((lp5252
g5224
ag5227
ag5226
ag5229
ag5230
ag5231
ag5232
ag5233
ag5234
atp5253
Rp5254
sg5233
g2
((lp5255
g5224
ag5227
ag5226
ag5228
ag5229
ag5230
ag5231
ag5232
ag5234
atp5256
Rp5257
sg5232
g2
((lp5258
g5224
ag5227
ag5226
ag5228
ag5229
ag5230
ag5231
ag5233
ag5234
atp5259
Rp5260
sg5234
g2
((lp5261
g5224
ag5227
ag5226
ag5228
ag5229
ag5230
ag5231
ag5232
ag5233
atp5262
Rp5263
sV\u66b4
p5264
g2
((lp5265
V\u66dd
p5266
aV\u7206
p5267
aV\u7011
p5268
atp5269
Rp5270
sg5267
g2
((lp5271
g5264
ag5266
ag5268
atp5272
Rp5273
sg5268
g2
((lp5274
g5264
ag5266
ag5267
atp5275
Rp5276
sg5266
g2
((lp5277
g5264
ag5267
ag5268
atp5278
Rp5279
sV\u5351
p5280
g2
((lp5281
V\u813e
p5282
aV\u7891
p5283
aV\u724c
p5284
atp5285
Rp5286
sg5282
g2
((lp5287
g5283
ag5280
ag5284
atp5288
Rp5289
sg5284
g2
((lp5290
g5282
ag5283
ag5280
atp5291
Rp5292
sg5283
g2
((lp5293
g5282
ag5280
ag5284
atp5294
Rp5295
sg4789
g2
((lp5296
g4788
aV\u8d2a
p5297
ag4791
ag4795
ag4793
ag4794
ag4790
ag4796
ag4792
atp5298
Rp5299
sg4795
g2
((lp5300
g4788
ag5297
ag4789
ag4791
ag4792
ag4793
ag4794
ag4790
ag4796
atp5301
Rp5302
sg4790
g2
((lp5303
g4788
ag5297
ag4789
ag4791
ag4792
ag4793
ag4794
ag4795
ag4796
atp5304
Rp5305
sg4794
g2
((lp5306
g4788
ag5297
ag4789
ag4790
ag4791
ag4792
ag4793
ag4795
ag4796
atp5307
Rp5308
sg4788
g2
((lp5309
g3385
aV\u6750
p5310
atp5311
Rp5312
sg4792
g2
((lp5313
g4788
ag5297
ag4789
ag4790
ag4791
ag4793
ag4794
ag4795
ag4796
atp5314
Rp5315
sg4793
g2
((lp5316
g4788
ag5297
ag4789
ag4790
ag4791
ag4792
ag4794
ag4795
ag4796
atp5317
Rp5318
sg4791
g2
((lp5319
g4788
ag5297
ag4789
ag4790
ag4792
ag4793
ag4794
ag4795
ag4796
atp5320
Rp5321
sg4796
g2
((lp5322
g4788
ag5297
ag4789
ag4790
ag4791
ag4792
ag4793
ag4794
ag4795
atp5323
Rp5324
sV\u8d32
p5325
g2
((lp5326
V\u55b7
p5327
aV\u6124
p5328
atp5329
Rp5330
sg5327
g2
((lp5331
g5325
ag5328
atp5332
Rp5333
sg5328
g2
((lp5334
g5327
ag5325
atp5335
Rp5336
sV\u672c
p5337
g2
((lp5338
V\u7b28
p5339
aV\u4f53
p5340
atp5341
Rp5342
sg5339
g2
((lp5343
g5340
ag5337
atp5344
Rp5345
sg5340
g2
((lp5346
g5339
ag5337
atp5347
Rp5348
sV\u5fc5
p5349
g2
((lp5350
V\u79d8
p5351
aV\u871c
p5352
aV\u5bc6
p5353
atp5354
Rp5355
sg5353
g2
((lp5356
g5349
ag5352
ag5351
atp5357
Rp5358
sg5352
g2
((lp5359
g5349
ag5353
ag5351
atp5360
Rp5361
sg5351
g2
((lp5362
g5349
ag5352
ag5353
atp5363
Rp5364
sV\u655d
p5365
g2
((lp5366
V\u618b
p5367
aV\u853d
p5368
aV\u5f0a
p5369
aV\u9cd6
p5370
atp5371
Rp5372
sg5368
g2
((lp5373
g5369
ag5367
ag5365
ag5370
atp5374
Rp5375
sg5367
g2
((lp5376
g5369
ag5368
ag5365
ag5370
atp5377
Rp5378
sg5370
g2
((lp5379
g5369
ag5367
ag5368
ag5365
atp5380
Rp5381
sg5369
g2
((lp5382
g5367
ag5368
ag5365
ag5370
atp5383
Rp5384
sg2483
g2
((lp5385
g2482
ag2490
ag2484
ag2485
ag2486
atp5386
Rp5387
sg2485
g2
((lp5388
g2482
ag2490
ag2483
ag2484
ag2486
atp5389
Rp5390
sg2484
g2
((lp5391
g2482
ag2490
ag2483
ag2485
ag2486
atp5392
Rp5393
sg2482
g2
((lp5394
g2490
ag2483
ag2484
ag2485
ag2486
atp5395
Rp5396
sV\u6241
p5397
g2
((lp5398
V\u7bc7
p5399
aV\u504f
p5400
aV\u7f16
p5401
aV\u904d
p5402
aV\u9a97
p5403
atp5404
Rp5405
sg5399
g2
((lp5406
g5400
ag5397
ag5401
ag5402
ag5403
atp5407
Rp5408
sg5403
g2
((lp5409
g5399
ag5400
ag5397
ag5401
ag5402
atp5410
Rp5411
sg5400
g2
((lp5412
g5399
ag5397
ag5401
ag5402
ag5403
atp5413
Rp5414
sg5402
g2
((lp5415
g5399
ag5400
ag5397
ag5401
ag5403
atp5416
Rp5417
sg5401
g2
((lp5418
g5399
ag5400
ag5397
ag5402
ag5403
atp5419
Rp5420
sV\u5e76
p5421
g2
((lp5422
V\u8ff8
p5423
ag5421
aV\u62fc
p5424
aV\u997c
p5425
atp5426
Rp5427
sg5424
g2
((lp5428
g5423
ag5421
ag5425
atp5429
Rp5430
sg5425
g2
((lp5431
g5423
ag5421
ag5424
atp5432
Rp5433
sg5423
g2
((lp5434
g5421
ag5424
ag5425
atp5435
Rp5436
sV\u5e1b
p5437
g2
((lp5438
V\u7ef5
p5439
aV\u9526
p5440
aV\u68c9
p5441
atp5442
Rp5443
sg5439
g2
((lp5444
g5437
ag5441
ag5440
atp5445
Rp5446
sg5441
g2
((lp5447
g5437
ag5439
ag5440
atp5448
Rp5449
sg5440
g2
((lp5450
g5437
ag5439
ag5441
atp5451
Rp5452
sV\u640f
p5453
g2
((lp5454
g756
ag757
ag758
ag768
ag759
ag760
ag761
ag762
ag763
atp5455
Rp5456
sV\u535a
p5457
g2
((lp5458
V\u8584
p5459
aV\u7f1a
p5460
aV\u7934
p5461
ag5453
aV\u5085
p5462
atp5463
Rp5464
sg5462
g2
((lp5465
g5459
ag5457
ag5460
ag5461
ag5453
atp5466
Rp5467
sg5459
g2
((lp5468
g5457
ag5460
ag5461
ag5453
ag5462
atp5469
Rp5470
sg5461
g2
((lp5471
g5459
ag5457
ag5460
ag5453
ag5462
atp5472
Rp5473
sg5460
g2
((lp5474
g5459
ag5457
ag5461
ag5453
ag5462
atp5475
Rp5476
sV\u535c
p5477
g2
((lp5478
V\u6251
p5479
aV\u8865
p5480
aV\u6734
p5481
aV\u4ec6
p5482
atp5483
Rp5484
sg5480
g2
((lp5485
g5482
ag5479
ag5481
ag5477
atp5486
Rp5487
sg5479
g2
((lp5488
g5482
ag5480
ag5481
ag5477
atp5489
Rp5490
sg5481
g2
((lp5491
g5482
ag5479
ag5480
ag5477
atp5492
Rp5493
sg5482
g2
((lp5494
g5479
ag5480
ag5481
ag5477
atp5495
Rp5496
sV\u4e0d
p5497
g2
((lp5498
V\u574f
p5499
aV\u73af
p5500
atp5501
Rp5502
sg5499
g2
((lp5503
g5497
ag5500
atp5504
Rp5505
sg5500
g2
((lp5506
g5497
ag5499
atp5507
Rp5508
sV\u90e8
p5509
g2
((lp5510
V\u500d
p5511
aV\u966a
p5512
atp5513
Rp5514
sg5512
g2
((lp5515
g5511
ag5509
atp5516
Rp5517
sg5511
g2
((lp5518
g5512
ag5509
atp5519
Rp5520
sg3385
g2
((lp5521
g3384
ag5310
atp5522
Rp5523
sV\u91c7
p5524
g2
((lp5525
V\u8e29
p5526
aV\u776c
p5527
aV\u83dc
p5528
aV\u5f69
p5529
atp5530
Rp5531
sg5529
g2
((lp5532
g5526
ag5524
ag5527
ag5528
atp5533
Rp5534
sg5527
g2
((lp5535
g5526
ag5524
ag5528
ag5529
atp5536
Rp5537
sg5526
g2
((lp5538
g5524
ag5527
ag5529
ag5528
atp5539
Rp5540
sg5528
g2
((lp5541
g5526
ag5524
ag5527
ag5529
atp5542
Rp5543
sV\u53c2
p5544
g2
((lp5545
V\u60e8
p5546
aV\u63ba
p5547
aV\u6e17
p5548
atp5549
Rp5550
sg5547
g2
((lp5551
g5546
ag5544
ag5548
atp5552
Rp5553
sg5546
g2
((lp5554
g5547
ag5544
ag5548
atp5555
Rp5556
sg5548
g2
((lp5557
g5546
ag5547
ag5544
atp5558
Rp5559
sg5145
g2
((lp5560
V\u767d
p5561
ag5147
ag5148
ag5146
ag5149
atp5562
Rp5563
sg5147
g2
((lp5564
g5561
ag5145
ag5146
ag5148
ag5149
atp5565
Rp5566
sg5149
g2
((lp5567
g5561
ag5145
ag5147
ag5148
ag5146
atp5568
Rp5569
sg5146
g2
((lp5570
g5561
ag5145
ag5147
ag5148
ag5149
atp5571
Rp5572
sg5148
g2
((lp5573
g5561
ag5145
ag5146
ag5147
ag5149
atp5574
Rp5575
sV\u66f9
p5576
g2
((lp5577
V\u5608
p5578
aV\u7cdf
p5579
aV\u69fd
p5580
aV\u906d
p5581
atp5582
Rp5583
sg5579
g2
((lp5584
g5576
ag5578
ag5580
ag5581
atp5585
Rp5586
sg5578
g2
((lp5587
g5576
ag5579
ag5580
ag5581
atp5588
Rp5589
sg5581
g2
((lp5590
g5576
ag5578
ag5579
ag5580
atp5591
Rp5592
sg5580
g2
((lp5593
g5576
ag5578
ag5579
ag5581
atp5594
Rp5595
sV\u67e5
p5596
g2
((lp5597
V\u78b4
p5598
aV\u6e23
p5599
atp5600
Rp5601
sg5599
g2
((lp5602
g5598
ag5596
atp5603
Rp5604
sg5598
g2
((lp5605
g5596
ag5599
atp5606
Rp5607
sV\u957f
p5608
g2
((lp5609
V\u6da8
p5610
aV\u5f20
p5611
aV\u80c0
p5612
atp5613
Rp5614
sg5610
g2
((lp5615
g5608
ag5611
ag5612
atp5616
Rp5617
sg5612
g2
((lp5618
g5610
ag5608
ag5611
atp5619
Rp5620
sg5611
g2
((lp5621
g5610
ag5608
ag5612
atp5622
Rp5623
sV\u671d
p5624
g2
((lp5625
V\u64a4
p5626
aV\u5632
p5627
aV\u6f6e
p5628
aV\u6f88
p5629
aV\u8f99
p5630
atp5631
Rp5632
sg5628
g2
((lp5633
g5624
ag5626
ag5627
ag5629
ag5630
atp5634
Rp5635
sg5627
g2
((lp5636
g5624
ag5626
ag5628
ag5629
ag5630
atp5637
Rp5638
sg5629
g2
((lp5639
g5624
ag5626
ag5627
ag5628
ag5630
atp5640
Rp5641
sg5626
g2
((lp5642
g5624
ag5627
ag5628
ag5629
ag5630
atp5643
Rp5644
sg5630
g2
((lp5645
g5624
ag5626
ag5627
ag5628
ag5629
atp5646
Rp5647
sV\u8fb0
p5648
g2
((lp5649
V\u8fb1
p5650
aV\u9707
p5651
aV\u6668
p5652
aV\u632f
p5653
aV\u5507
p5654
atp5655
Rp5656
sg5654
g2
((lp5657
g5650
ag5651
ag5652
ag5653
ag5648
atp5658
Rp5659
sg5652
g2
((lp5660
g5650
ag5651
ag5653
ag5654
ag5648
atp5661
Rp5662
sg5651
g2
((lp5663
g5650
ag5652
ag5653
ag5654
ag5648
atp5664
Rp5665
sg5653
g2
((lp5666
g5650
ag5651
ag5652
ag5654
ag5648
atp5667
Rp5668
sg5650
g2
((lp5669
g5651
ag5652
ag5653
ag5654
ag5648
atp5670
Rp5671
sV\u6210
p5672
g2
((lp5673
V\u57ce
p5674
aV\u8bda
p5675
aV\u76db
p5676
atp5677
Rp5678
sg5674
g2
((lp5679
g5675
ag5676
ag5672
atp5680
Rp5681
sg5675
g2
((lp5682
g5674
ag5676
ag5672
atp5683
Rp5684
sg5676
g2
((lp5685
g5674
ag5675
ag5672
atp5686
Rp5687
sV\u866b
p5688
g2
((lp5689
V\u86cb
p5690
aV\u72ec
p5691
aV\u8695
p5692
aV\u6d4a
p5693
atp5694
Rp5695
sg5691
g2
((lp5696
g5688
ag5690
ag5692
ag5693
atp5697
Rp5698
sg5693
g2
((lp5699
g5688
ag5690
ag5691
ag5692
atp5700
Rp5701
sg5690
g2
((lp5702
g5688
ag5691
ag5692
ag5693
atp5703
Rp5704
sg5692
g2
((lp5705
g5688
ag5690
ag5691
ag5693
atp5706
Rp5707
sV\u4e11
p5708
g2
((lp5709
V\u626d
p5710
aV\u7ebd
p5711
aV\u94ae
p5712
atp5713
Rp5714
sg5710
g2
((lp5715
g5711
ag5708
ag5712
atp5716
Rp5717
sg5712
g2
((lp5718
g5710
ag5711
ag5708
atp5719
Rp5720
sg5711
g2
((lp5721
g5710
ag5708
ag5712
atp5722
Rp5723
sg1649
g2
((lp5724
g1646
ag1647
ag1648
ag1655
ag1650
atp5725
Rp5726
sg1648
g2
((lp5727
g1646
ag1647
ag1649
ag1655
ag1650
atp5728
Rp5729
sg1646
g2
((lp5730
g1647
ag1648
ag1649
ag1655
ag1650
atp5731
Rp5732
sg3608
g2
((lp5733
V\u76b1
p5734
ag3609
ag3610
atp5735
Rp5736
sg3609
g2
((lp5737
g3608
ag5734
ag3610
atp5738
Rp5739
sg3610
g2
((lp5740
g3608
ag5734
ag3609
atp5741
Rp5742
sV\u555c
p5743
g2
((lp5744
V\u6387
p5745
aV\u7f00
p5746
atp5747
Rp5748
sg5745
g2
((lp5749
g5746
ag5743
atp5750
Rp5751
sg5746
g2
((lp5752
g5745
ag5743
atp5753
Rp5754
sV\u5598
p5755
g2
((lp5756
V\u63e3
p5757
aV\u7aef
p5758
aV\u745e
p5759
aV\u6e4d
p5760
atp5761
Rp5762
sg5757
g2
((lp5763
g5758
ag5755
ag5759
ag5760
atp5764
Rp5765
sg5758
g2
((lp5766
g5757
ag5755
ag5759
ag5760
atp5767
Rp5768
sg5760
g2
((lp5769
g5757
ag5758
ag5755
ag5759
atp5770
Rp5771
sg5759
g2
((lp5772
g5757
ag5758
ag5755
ag5760
atp5773
Rp5774
sV\u4e32
p5775
g2
((lp5776
V\u7a9c
p5777
aV\u60a3
p5778
atp5779
Rp5780
sg5778
g2
((lp5781
g5777
ag5775
atp5782
Rp5783
sg5777
g2
((lp5784
g5778
ag5775
atp5785
Rp5786
sV\u5782
p5787
g2
((lp5788
V\u68f0
p5789
aV\u6376
p5790
aV\u9524
p5791
aV\u9672
p5792
aV\u7761
p5793
atp5794
Rp5795
sg5792
g2
((lp5796
g5789
ag5787
ag5790
ag5791
ag5793
atp5797
Rp5798
sg5793
g2
((lp5799
g5789
ag5787
ag5790
ag5791
ag5792
atp5800
Rp5801
sg5791
g2
((lp5802
g5789
ag5787
ag5790
ag5792
ag5793
atp5803
Rp5804
sg5789
g2
((lp5805
g5787
ag5790
ag5791
ag5792
ag5793
atp5806
Rp5807
sg5790
g2
((lp5808
g5789
ag5787
ag5791
ag5792
ag5793
atp5809
Rp5810
sV\u6b64
p5811
g2
((lp5812
V\u4e9b
p5813
aV\u67f4
p5814
aV\u7d2b
p5815
atp5816
Rp5817
sg5814
g2
((lp5818
g5811
ag5813
ag5815
atp5819
Rp5820
sg5815
g2
((lp5821
g5811
ag5814
ag5813
atp5822
Rp5823
sg5813
g2
((lp5824
g5811
ag5814
ag5815
atp5825
Rp5826
sV\u6b21
p5827
g2
((lp5828
V\u8d44
p5829
aV\u54a8
p5830
aV\u59ff
p5831
atp5832
Rp5833
sg5829
g2
((lp5834
g5830
ag5827
ag5831
atp5835
Rp5836
sg5830
g2
((lp5837
g5829
ag5827
ag5831
atp5838
Rp5839
sg5831
g2
((lp5840
g5830
ag5829
ag5827
atp5841
Rp5842
sV\u4ece
p5843
g2
((lp5844
V\u7eb5
p5845
aV\u679e
p5846
aV\u4f17
p5847
aV\u4e1b
p5848
atp5849
Rp5850
sg5848
g2
((lp5851
g5843
ag5847
ag5846
ag5845
atp5852
Rp5853
sg5845
g2
((lp5854
g5843
ag5847
ag5846
ag5848
atp5855
Rp5856
sg5847
g2
((lp5857
g5843
ag5845
ag5846
ag5848
atp5858
Rp5859
sg5846
g2
((lp5860
g5843
ag5845
ag5847
ag5848
atp5861
Rp5862
sV\u5d14
p5863
g2
((lp5864
V\u50ac
p5865
aV\u6467
p5866
atp5867
Rp5868
sg5866
g2
((lp5869
g5863
ag5865
atp5870
Rp5871
sg5865
g2
((lp5872
g5863
ag5866
atp5873
Rp5874
sg3391
g2
((lp5875
g3389
aV\u6751
p5876
ag3390
ag3392
ag3393
ag3394
ag3395
ag3396
atp5877
Rp5878
sg3393
g2
((lp5879
g5876
ag3389
ag3390
ag3391
ag3392
ag3394
ag3395
ag3396
atp5880
Rp5881
sg3389
g2
((lp5882
V\u4ed8
p5883
aV\u7b26
p5884
aV\u8150
p5885
aV\u9644
p5886
aV\u4fef
p5887
atp5888
Rp5889
sg3390
g2
((lp5890
g5876
ag3389
ag3391
ag3392
ag3393
ag3394
ag3395
ag3396
atp5891
Rp5892
sg3395
g2
((lp5893
g5876
ag3389
ag3390
ag3391
ag3392
ag3393
ag3394
ag3396
atp5894
Rp5895
sg3394
g2
((lp5896
g5876
ag3389
ag3390
ag3391
ag3392
ag3393
ag3395
ag3396
atp5897
Rp5898
sg3392
g2
((lp5899
g5876
ag3389
ag3390
ag3391
ag3393
ag3394
ag3395
ag3396
atp5900
Rp5901
sg3396
g2
((lp5902
g5876
ag3389
ag3390
ag3391
ag3392
ag3393
ag3394
ag3395
atp5903
Rp5904
sV\u65e6
p5905
g2
((lp5906
V\u4f46
p5907
aV\u5766
p5908
aV\u62c5
p5909
aV\u80c6
p5910
atp5911
Rp5912
sg5910
g2
((lp5913
g5905
ag5908
ag5907
ag5909
atp5914
Rp5915
sg5907
g2
((lp5916
g5905
ag5908
ag5909
ag5910
atp5917
Rp5918
sg5909
g2
((lp5919
g5905
ag5908
ag5907
ag5910
atp5920
Rp5921
sg5908
g2
((lp5922
g5905
ag5907
ag5909
ag5910
atp5923
Rp5924
sV\u5f53
p5925
g2
((lp5926
V\u6863
p5927
aV\u6321
p5928
atp5929
Rp5930
sg5928
g2
((lp5931
g5927
ag5925
atp5932
Rp5933
sg5927
g2
((lp5934
g5928
ag5925
atp5935
Rp5936
sV\u767b
p5937
g2
((lp5938
V\u51f3
p5939
aV\u6a59
p5940
aV\u8e6c \u6f84
p5941
atp5942
Rp5943
sg5939
g2
((lp5944
g5940
ag5941
ag5937
atp5945
Rp5946
sg5940
g2
((lp5947
g5939
ag5941
ag5937
atp5948
Rp5949
sg5941
g2
((lp5950
g5939
ag5940
ag5937
atp5951
Rp5952
sV\u5e1d
p5953
g2
((lp5954
V\u8e44
p5955
aV\u557c
p5956
atp5957
Rp5958
sg5955
g2
((lp5959
g5953
ag5956
atp5960
Rp5961
sg5956
g2
((lp5962
g5955
ag5953
atp5963
Rp5964
sg4945
g2
((lp5965
V\u53e5
p5966
atp5967
Rp5968
sV\u4e01
p5969
g2
((lp5970
V\u9489
p5971
aV\u6253
p5972
aV\u8ba2
p5973
aV\u76ef
p5974
aV\u53ee
p5975
atp5976
Rp5977
sg5973
g2
((lp5978
g5971
ag5972
ag5969
ag5974
ag5975
atp5979
Rp5980
sg5971
g2
((lp5981
g5972
ag5969
ag5973
ag5974
ag5975
atp5982
Rp5983
sg5975
g2
((lp5984
g5971
ag5972
ag5969
ag5973
ag5974
atp5985
Rp5986
sg5974
g2
((lp5987
g5971
ag5972
ag5969
ag5973
ag5975
atp5988
Rp5989
sg5972
g2
((lp5990
g5971
ag5969
ag5973
ag5974
ag5975
atp5991
Rp5992
sV\u4e1c
p5993
g2
((lp5994
V\u51bb
p5995
aV\u680b
p5996
atp5997
Rp5998
sg5995
g2
((lp5999
g5993
ag5996
atp6000
Rp6001
sg5996
g2
((lp6002
g5995
ag5993
atp6003
Rp6004
sg1816
g2
((lp6005
g1817
ag1818
ag4189
ag1819
ag1820
atp6006
Rp6007
sg1817
g2
((lp6008
g1816
ag1818
ag4189
ag1819
ag1820
atp6009
Rp6010
sg1820
g2
((lp6011
g1816
ag1817
ag1818
ag4189
ag1819
atp6012
Rp6013
sg1818
g2
((lp6014
g1816
ag1817
ag4189
ag1819
ag1820
atp6015
Rp6016
sg3229
g2
((lp6017
V\u65ad
p6018
atp6019
Rp6020
sV\u5151
p6021
g2
((lp6022
V\u8131
p6023
aV\u60a6
p6024
aV\u8bf4
p6025
atp6026
Rp6027
sg6024
g2
((lp6028
g6023
ag6025
ag6021
atp6029
Rp6030
sg6025
g2
((lp6031
g6023
ag6024
ag6021
atp6032
Rp6033
sg6023
g2
((lp6034
g6024
ag6025
ag6021
atp6035
Rp6036
sV\u591a
p6037
g2
((lp6038
V\u79fb
p6039
aV\u54c6
p6040
aV\u4f88
p6041
aV\u591f
p6042
atp6043
Rp6044
sg6041
g2
((lp6045
g6039
ag6042
ag6040
ag6037
atp6046
Rp6047
sg6039
g2
((lp6048
g6040
ag6042
ag6041
ag6037
atp6049
Rp6050
sg6042
g2
((lp6051
g6039
ag6040
ag6041
ag6037
atp6052
Rp6053
sg6040
g2
((lp6054
g6039
ag6042
ag6041
ag6037
atp6055
Rp6056
sV\u5c14
p6057
g2
((lp6058
V\u7315
p6059
aV\u4f60
p6060
aV\u5f25
p6061
atp6062
Rp6063
sg6060
g2
((lp6064
g6059
ag6057
ag6061
atp6065
Rp6066
sg6061
g2
((lp6067
g6060
ag6057
ag6059
atp6068
Rp6069
sg6059
g2
((lp6070
g6060
ag6057
ag6061
atp6071
Rp6072
sg1231
g2
((lp6073
g1230
ag1232
ag1255
ag1233
ag1234
ag1235
ag1236
atp6074
Rp6075
sg1230
g2
((lp6076
g1231
ag1232
ag1255
ag1233
ag1234
ag1235
ag1236
atp6077
Rp6078
sg1236
g2
((lp6079
g1230
ag1231
ag1232
ag1255
ag1234
ag1235
ag1233
atp6080
Rp6081
sg1232
g2
((lp6082
g1230
ag1231
ag1255
ag1233
ag1234
ag1235
ag1236
atp6083
Rp6084
sg1235
g2
((lp6085
g1230
ag1231
ag1255
ag1232
ag1233
ag1234
ag1236
atp6086
Rp6087
sg1233
g2
((lp6088
g1230
ag1231
ag1255
ag1232
ag1234
ag1235
ag1236
atp6089
Rp6090
sg1158
g2
((lp6091
g1157
ag1165
atp6092
Rp6093
sV\u53cd
p6094
g2
((lp6095
V\u8fd4
p6096
aV\u677f
p6097
aV\u996d
p6098
aV\u7248
p6099
atp6100
Rp6101
sg6099
g2
((lp6102
g6096
ag6094
ag6098
ag6097
atp6103
Rp6104
sg6097
g2
((lp6105
g6096
ag6094
ag6098
ag6099
atp6106
Rp6107
sg6098
g2
((lp6108
g6094
ag6096
ag6099
ag6097
atp6109
Rp6110
sg6096
g2
((lp6111
g6094
ag6098
ag6099
ag6097
atp6112
Rp6113
sV\u65b9
p6114
g2
((lp6115
V\u9632
p6116
aV\u59a8
p6117
aV\u4eff
p6118
aV\u7eba
p6119
aV\u65c5
p6120
aV\u8bbf
p6121
atp6122
Rp6123
sg6116
g2
((lp6124
g6114
ag6117
ag6118
ag6119
ag6120
ag6121
atp6125
Rp6126
sg6121
g2
((lp6127
g6116
ag6114
ag6117
ag6118
ag6119
ag6120
atp6128
Rp6129
sg6117
g2
((lp6130
g6116
ag6114
ag6118
ag6119
ag6120
ag6121
atp6131
Rp6132
sg6119
g2
((lp6133
g6116
ag6114
ag6117
ag6118
ag6120
ag6121
atp6134
Rp6135
sg6120
g2
((lp6136
g6116
ag6114
ag6117
ag6118
ag6119
ag6121
atp6137
Rp6138
sg6118
g2
((lp6139
g6116
ag6114
ag6117
ag6119
ag6120
ag6121
atp6140
Rp6141
sV\u975e
p6142
g2
((lp6143
V\u83f2
p6144
aV\u532a
p6145
aV\u6392
p6146
aV\u970f
p6147
aV\u8f88
p6148
aV\u60b2
p6149
aV\u5f98\u5f8a
p6150
atp6151
Rp6152
sg6144
g2
((lp6153
g6145
ag6142
ag6146
ag6147
ag6148
ag6149
ag6150
atp6154
Rp6155
sg6147
g2
((lp6156
g6144
ag6145
ag6142
ag6146
ag6148
ag6149
ag6150
atp6157
Rp6158
sg6146
g2
((lp6159
g6144
ag6145
ag6142
ag6148
ag6147
ag6149
ag6150
atp6160
Rp6161
sg6149
g2
((lp6162
g6144
ag6145
ag6142
ag6146
ag6147
ag6148
ag6150
atp6163
Rp6164
sg6145
g2
((lp6165
g6144
ag6142
ag6146
ag6147
ag6148
ag6149
ag6150
atp6166
Rp6167
sg6148
g2
((lp6168
g6144
ag6145
ag6142
ag6146
ag6147
ag6149
ag6150
atp6169
Rp6170
sg6150
g2
((lp6171
g6144
ag6145
ag6142
ag6146
ag6147
ag6148
ag6149
atp6172
Rp6173
sV\u5206
p6174
g2
((lp6175
V\u82ac
p6176
aV\u7c89
p6177
aV\u7eb7
p6178
aV\u4efd
p6179
atp6180
Rp6181
sg6177
g2
((lp6182
g6174
ag6176
ag6178
ag6179
atp6183
Rp6184
sg6176
g2
((lp6185
g6174
ag6177
ag6178
ag6179
atp6186
Rp6187
sg6179
g2
((lp6188
g6174
ag6176
ag6177
ag6178
atp6189
Rp6190
sg6178
g2
((lp6191
g6174
ag6176
ag6177
ag6179
atp6192
Rp6193
sg3617
g2
((lp6194
V\u98d8
p6195
ag3614
ag3615
ag3616
ag3618
ag3619
atp6196
Rp6197
sg3616
g2
((lp6198
g6195
ag3614
ag3615
ag3617
ag3618
ag3619
atp6199
Rp6200
sg3614
g2
((lp6201
g6195
ag3615
ag3616
ag3617
ag3618
ag3619
atp6202
Rp6203
sg3619
g2
((lp6204
g6195
ag3614
ag3615
ag3616
ag3617
ag3618
atp6205
Rp6206
sg3615
g2
((lp6207
g6195
ag3614
ag3616
ag3617
ag3618
ag3619
atp6208
Rp6209
sg3618
g2
((lp6210
g6195
ag3614
ag3615
ag3616
ag3617
ag3619
atp6211
Rp6212
sV\u9022
p6213
g2
((lp6214
g6213
aV\u7bf7
p6215
aV\u5cf0
p6216
aV\u7f1d
p6217
aV\u84ec
p6218
aV\u950b
p6219
aV\u8702
p6220
atp6221
Rp6222
sg6217
g2
((lp6223
g6213
ag6215
ag6216
ag6218
ag6219
ag6220
atp6224
Rp6225
sg6218
g2
((lp6226
g6213
ag6215
ag6216
ag6217
ag6219
ag6220
atp6227
Rp6228
sg6215
g2
((lp6229
g6213
ag6216
ag6217
ag6218
ag6219
ag6220
atp6230
Rp6231
sg6216
g2
((lp6232
g6213
ag6215
ag6217
ag6218
ag6219
ag6220
atp6233
Rp6234
sg6219
g2
((lp6235
g6213
ag6215
ag6216
ag6217
ag6218
ag6220
atp6236
Rp6237
sg6220
g2
((lp6238
g6213
ag6215
ag6216
ag6217
ag6218
ag6219
atp6239
Rp6240
sV\u5949
p6241
g2
((lp6242
V\u6367
p6243
aV\u68d2
p6244
atp6245
Rp6246
sg6244
g2
((lp6247
g6243
ag6241
atp6248
Rp6249
sg6243
g2
((lp6250
g6241
ag6244
atp6251
Rp6252
sV\u592b
p6253
g2
((lp6254
V\u5929
p6255
aV\u72ac
p6256
aV\u5927
p6257
atp6258
Rp6259
sV\u6276
p6260
g2
((lp6261
V\u80a4
p6262
ag6253
atp6263
Rp6264
sg6262
g2
((lp6265
g6260
ag6253
atp6266
Rp6267
sV\u5f17
p6268
g2
((lp6269
V\u6cb8
p6270
aV\u62c2
p6271
aV\u4f5b
p6272
atp6273
Rp6274
sg6270
g2
((lp6275
g6271
ag6272
ag6268
atp6276
Rp6277
sg6271
g2
((lp6278
g6270
ag6272
ag6268
atp6279
Rp6280
sg6272
g2
((lp6281
g6270
ag6271
ag6268
atp6282
Rp6283
sV\u5e45
p6284
g2
((lp6285
V\u903c
p6286
aV\u798f
p6287
aV\u526f
p6288
atp6289
Rp6290
sg6288
g2
((lp6291
g6286
ag6287
ag6284
atp6292
Rp6293
sg6286
g2
((lp6294
g6287
ag6284
ag6288
atp6295
Rp6296
sg6287
g2
((lp6297
g6286
ag6284
ag6288
atp6298
Rp6299
sg760
g2
((lp6300
g756
ag758
ag757
ag768
ag759
ag761
ag762
ag763
ag764
atp6301
Rp6302
sg761
g2
((lp6303
g756
ag757
ag758
ag768
ag759
ag760
ag762
ag763
ag764
atp6304
Rp6305
sg758
g2
((lp6306
g756
ag757
ag768
ag759
ag760
ag761
ag762
ag763
ag764
atp6307
Rp6308
sg757
g2
((lp6309
g756
ag758
ag768
ag759
ag760
ag761
ag762
ag763
ag764
atp6310
Rp6311
sg759
g2
((lp6312
g756
ag757
ag758
ag768
ag760
ag761
ag762
ag763
ag764
atp6313
Rp6314
sg763
g2
((lp6315
g756
ag757
ag758
ag768
ag759
ag760
ag761
ag762
ag764
atp6316
Rp6317
sg756
g2
((lp6318
g757
ag758
ag768
ag759
ag760
ag761
ag762
ag763
ag764
atp6319
Rp6320
sg5886
g2
((lp6321
g5883
ag5884
ag5887
ag5885
atp6322
Rp6323
sg5885
g2
((lp6324
g5883
ag5884
ag5887
ag5886
atp6325
Rp6326
sg5884
g2
((lp6327
g5883
ag5887
ag5885
ag5886
atp6328
Rp6329
sg5887
g2
((lp6330
g5883
ag5884
ag5885
ag5886
atp6331
Rp6332
sV\u590d
p6333
g2
((lp6334
g6333
aV\u5c65
p6335
atp6336
Rp6337
sg6335
g2
((lp6338
g6333
atp6339
Rp6340
sV\u5e72
p6341
g2
((lp6342
V\u8f69
p6343
aV\u79c6
p6344
aV\u6746
p6345
atp6346
Rp6347
sg6344
g2
((lp6348
g6343
ag6341
ag6345
atp6349
Rp6350
sg6345
g2
((lp6351
g6343
ag6344
ag6341
atp6352
Rp6353
sg6343
g2
((lp6354
g6344
ag6341
ag6345
atp6355
Rp6356
sV\u7518
p6357
g2
((lp6358
V\u94b3
p6359
aV\u751c
p6360
aV\u67d1
p6361
atp6362
Rp6363
sg6359
g2
((lp6364
g6360
ag6361
ag6357
atp6365
Rp6366
sg6360
g2
((lp6367
g6359
ag6361
ag6357
atp6368
Rp6369
sg6361
g2
((lp6370
g6359
ag6360
ag6357
atp6371
Rp6372
sV\u5188
p6373
g2
((lp6374
V\u5c97
p6375
aV\u94a2
p6376
aV\u521a
p6377
aV\u7eb2
p6378
atp6379
Rp6380
sg6377
g2
((lp6381
g6376
ag6373
ag6378
ag6375
atp6382
Rp6383
sg6376
g2
((lp6384
g6375
ag6373
ag6377
ag6378
atp6385
Rp6386
sg6375
g2
((lp6387
g6376
ag6373
ag6377
ag6378
atp6388
Rp6389
sg6378
g2
((lp6390
g6376
ag6373
ag6377
ag6375
atp6391
Rp6392
sV\u5e05
p6393
g2
((lp6394
V\u5e08
p6395
atp6396
Rp6397
sg6395
g2
((lp6398
g6393
atp6399
Rp6400
sg6257
g2
((lp6401
g6255
ag6256
aV\u592b
p6402
atp6403
Rp6404
sg6256
g2
((lp6405
g6402
ag6255
ag6257
atp6406
Rp6407
sg6255
g2
((lp6408
g6402
ag6256
ag6257
atp6409
Rp6410
s.