ccollections
Counter
p0
((dp1
V\u66fe
p2
L1L
sV\u7ecf
p3
L4L
sV\uff0c
p4
L182L
sV\u6211
p5
L44L
sV\u4fd1
p6
L3L
sV\uff08
p7
L304L
sV\u62e5
p8
L3L
sV\uff09
p9
L304L
sV\u6709
p10
L23L
sV\u9ad8
p11
L7L
sV\u5c71
p12
L8L
sV\u6d41
p13
L3L
sV\u6c34
p14
L10L
sV\u642c
p15
L1L
sV\u822c
p16
L2L
sV\u7684
p17
L145L
sV\u53cb
p18
L13L
sV\u60c5
p19
L8L
sV\u53ef
p20
L10L
sV\u5982
p21
L9L
sV\u4eca
p22
L6L
sV\u5931
p23
L2L
sV\u53bb
p24
L6L
sV\u4e86
p25
L30L
sV\u3002
p26
L108L
sV\u4e0d
p27
L32L
sV\u5f97
p28
L13L
sV\u627f
p29
L1L
sV\u8ba4
p30
L2L
sV\u81ea
p31
L4L
sV\u5df1
p32
L2L
sV\u8fc7
p33
L12L
sV\u9519
p34
L3L
sV\u5f53
p35
L7L
sV\u62ff
p36
L1L
sV\u5e78
p37
L2L
sV\u798f
p38
L1L
sV\u4f5c
p39
L8L
sV\u5835
p40
L1L
sV\u8d4c
p41
L1L
sV\u6ce8
p42
L2L
sV\u65f6
p43
L16L
sV\u5b34
p44
L1L
sV\u56de
p45
L5L
sV\u5374
p46
L3L
sV\u662f
p47
L40L
sV\u96ea
p48
L1L
sV\u96e8
p49
L3L
sV\u51b0
p50
L1L
sV\u971c
p51
L1L
sV\u4e00
p52
L57L
sV\u9897
p53
L2L
sV\u706b
p54
L4L
sV\u70ed
p55
L3L
sV\u5fc3
p56
L13L
sV\u4ece
p57
L5L
sV\u6b64
p58
L1L
sV\u88ab
p59
L3L
sV\u51b7
p60
L3L
sV\u8535
p61
L1L
sV\u8d77
p62
L13L
sV\u6765
p63
L24L
sV\u4e5f
p64
L7L
sV\u8bb8
p65
L2L
sV\u6b63
p66
L4L
sV\u522b
p67
L3L
sV\u4eba
p68
L39L
sV\u6240
p69
L6L
sV\u8bf4
p70
L5L
sV\u5bc2
p71
L3L
sV\u5bde
p72
L3L
sV\u4f7f
p73
L5L
sV\u4e24
p74
L6L
sV\u4e2a
p75
L16L
sV\u8d70
p76
L3L
sV\u5230
p77
L15L
sV\u5176
p78
L5L
sV\u4e2d
p79
L20L
sV\u518d
p80
L4L
sV\u53e6
p81
L1L
sV\u4fbf
p82
L3L
sV\u6210
p83
L8L
sV\u7d2f
p84
L2L
sV\u8d58
p85
L1L
sV\u4e0a
p86
L28L
sV\u5929
p87
L14L
sV\u6177
p88
L1L
sV\u6982
p89
L2L
sV\u5730
p90
L17L
sV\u8d50
p91
L1L
sV\u4e88
p92
L1L
sV\u4eec
p93
L25L
sV\u5f88
p94
L9L
sV\u591a
p95
L10L
sV\u5305
p96
L1L
sV\u62ec
p97
L1L
sV\u968f
p98
L3L
sV\u7740
p99
L20L
sV\u95f4
p100
L5L
sV\u98de
p101
L1L
sV\u52bf
p102
L4L
sV\u4f1a
p103
L7L
sV\u50cf
p104
L3L
sV\u9648
p105
L2L
sV\u6d12
p106
L1L
sV\u9152
p107
L1L
sV\u8d8a
p108
L2L
sV\u9635
p109
L8L
sV\u9999
p110
L4L
sV\u5fc6
p111
L1L
sV\u4e0e
p112
L2L
sV\u670b
p113
L5L
sV\u5728
p114
L29L
sV\u70b9
p115
L5L
sV\u6ef4
p116
L2L
sV\u7ed9
p117
L5L
sV\u7075
p118
L3L
sV\u5e26
p119
L6L
sV\u65e0
p120
L15L
sV\u6bd4
p121
L4L
sV\u632f
p122
L1L
sV\u9707
p123
L1L
sV\u64bc
p124
L1L
sV
p125
L96L
sV\u000a
p126
L96L
sV\u76f8
p127
L7L
sV\u5904
p128
L4L
sV\u4e45
p129
L2L
sV\u7136
p130
L8L
sV\u4e9b
p131
L4L
sV\u8305
p132
L1L
sV\u77db
p133
L1L
sV\u76fe
p134
L1L
sV\u4f46
p135
L2L
sV\u4f55
p136
L5L
sV\u89e3
p137
L3L
sV\u51b3
p138
L3L
sV\u5b83
p139
L6L
sV\u90fd
p140
L13L
sV\u80fd
p141
L7L
sV\u628a
p142
L8L
sV\u63e1
p143
L2L
sV\u597d
p144
L13L
sV\u5373
p145
L3L
sV\u90a3
p146
L9L
sV\u5c31
p147
L7L
sV\u5e94
p148
L6L
sV\u4e92
p149
L2L
sV\u7406
p150
L6L
sV\u3001
p151
L15L
sV\u5bbd
p152
L1L
sV\u5bb9
p153
L3L
sV\u540c
p154
L5L
sV\u6f7a
p155
L2L
sV\u5165
p156
L6L
sV\u5bf9
p157
L9L
sV\u65b9
p158
L4L
sV\u7530
p159
L1L
sV\u6ecb
p160
L1L
sV\u6da6
p161
L2L
sV\u5e72
p162
L2L
sV\u56fa
p163
L1L
sV\u6db8
p164
L1L
sV\u5475
p165
L1L
sV\u62a4
p166
L2L
sV\u8c0a
p167
L1L
sV\u82b1
p168
L8L
sV\u6735
p169
L1L
sV\u62cc
p170
L1L
sV\u4f34
p171
L3L
sV\u751f
p172
L27L
sV\u5c06
p173
L5L
sV\u5145
p174
L2L
sV\u6ee1
p175
L3L
sV\u6717
p176
L3L
sV\u7b11
p177
L2L
sV\u58f0
p178
L7L
sV\uff1b
p179
L4L
sV\u62b1
p180
L1L
sV\u6d0b
p181
L1L
sV\u76ca
p182
L1L
sV\u6ea2
p183
L1L
sV\u52c3
p184
L2L
sV\u673a
p185
L3L
sV\u6625
p186
L5L
sV\u98ce
p187
L4L
sV\u5439
p188
L2L
sV\u4f5b
p189
L2L
sV\u62c2
p190
L1L
sV\u4e0b
p191
L9L
sV\u75be
p192
L1L
sV\u5992
p193
L1L
sV\u618e
p194
L1L
sV\u6068
p195
L1L
sV\u4fae
p196
L1L
sV\u8fb1
p197
L1L
sV\u6b3a
p198
L1L
sV\u9a97
p199
L1L
sV\u654c
p200
L1L
sV\u89c6
p201
L3L
sV\u5618
p202
L1L
sV\u2026
p203
L2L
sV\u843d
p204
L2L
sV\u8010
p205
L2L
sV\u5948
p206
L2L
sV\u96f6
p207
L1L
sV\u6ce5
p208
L1L
sV\u966a
p209
L1L
sV\u57f9
p210
L1L
sV\u80b2
p211
L2L
sV\u65b0
p212
L5L
sV\u679d
p213
L2L
sV\u7259
p214
L1L
sV\u8001
p215
L13L
sV\u5e08
p216
L11L
sV\u5de5
p217
L7L
sV\u975e
p218
L4L
sV\u5e38
p219
L8L
sV\u8f9b
p220
L1L
sV\u82e6
p221
L3L
sV\u8981
p222
L8L
sV\u9075
p223
L1L
sV\u5c0a
p224
L1L
sV\u656c
p225
L1L
sV\u5c0f
p226
L6L
sV\u71d5
p227
L1L
sV\u5b50
p228
L10L
sV\u8eab
p229
L3L
sV\u4e4c
p230
L2L
sV\u9ed1
p231
L2L
sV\u5149
p232
L7L
sV\u6ed1
p233
L1L
sV\u7fbd
p234
L1L
sV\u6bdb
p235
L1L
sV\u6bcf
p236
L5L
sV\u653e
p237
L3L
sV\u5b66
p238
L11L
sV\u5bb6
p239
L7L
sV\u9752
p240
L6L
sV\u603b
p241
L6L
sV\u5148
p242
L5L
sV\u505a
p243
L4L
sV\u529f
p244
L4L
sV\u8bfe
p245
L5L
sV\u73a9
p246
L2L
sV\u5c11
p247
L3L
sV\u961f
p248
L3L
sV\u5458
p249
L4L
sV\u56e0
p250
L4L
sV\u8be5
p251
L4L
sV\u4e3a
p252
L4L
sV\u8ba9
p253
L5L
sV\u5750
p254
L4L
sV\u5ea7
p255
L2L
sV\u8bb2
p256
L3L
sV\u53f0
p257
L4L
sV\u53ea
p258
L6L
sV\u6f02
p259
L2L
sV\u4eae
p260
L3L
sV\u521a
p261
L1L
sV\u94a2
p262
L1L
sV\u7b14
p263
L1L
sV\u670d
p264
L4L
sV\u88c5
p265
L2L
sV\u5e97
p266
L1L
sV\u91cc
p267
L10L
sV\u8863
p268
L3L
sV\u5404
p269
L2L
sV\u8bd5
p270
L2L
sV\u5f0f
p271
L1L
sV\u6837
p272
L2L
sV\u773c
p273
L6L
sV\u770b
p274
L9L
sV\u86d9
p275
L1L
sV\u5e84
p276
L1L
sV\u5b9d
p277
L1L
sV\u4fdd
p278
L2L
sV\u4f53
p279
L1L
sV\u5979
p280
L2L
sV\u8270
p281
L2L
sV\u575a
p282
L2L
sV\u6301
p283
L2L
sV\u51ac
p284
L2L
sV\u6234
p285
L4L
sV\u672c
p286
L1L
sV\u7ae5
p287
L1L
sV\u8bdd
p288
L2L
sV\u4e66
p289
L1L
sV\u70c8
p290
L4L
sV\u6c14
p291
L6L
sV\u5206
p292
L12L
sV\u6c1b
p293
L1L
sV\u8fdb
p294
L7L
sV\u884c
p295
L6L
sV\u9c7c
p296
L2L
sV\u6e14
p297
L2L
sV\u8239
p298
L1L
sV\u6d6e
p299
L3L
sV\u5e73
p300
L4L
sV\u51c0
p301
L2L
sV\u9759
p302
L1L
sV\u6cb3
p303
L2L
sV\u9762
p304
L4L
sV\u9898
p305
L2L
sV\u63d0
p306
L4L
sV\u95ee
p307
L2L
sV\u4e89
p308
L5L
sV\u4e3e
p309
L1L
sV\u624b
p310
L6L
sV\u4e61
p311
L2L
sV\u660e
p312
L6L
sV\u540d
p313
L4L
sV\u7c73
p314
L1L
sV\u4e4b
p315
L5L
sV\u52b3
p316
L2L
sV\u52a8
p317
L7L
sV\u8282
p318
L5L
sV\u5174
p319
L2L
sV\u5f69
p320
L5L
sV\u5217
p321
L5L
sV\u516c
p322
L4L
sV\u56ed
p323
L3L
sV\u6e38
p324
L9L
sV\u4ee4
p325
L3L
sV\u7a81
p326
L2L
sV\u5988
p327
L8L
sV\u4e1b
p328
L1L
sV\u7bb1
p329
L1L
sV\u756a
p330
L1L
sV\u7ffb
p331
L1L
sV\u51fa
p332
L10L
sV\u4ef6
p333
L2L
sV\u65e7
p334
L1L
sV\u68c9
p335
L2L
sV\u7a7f
p336
L4L
sV\u539f
p337
L3L
sV\u610f
p338
L2L
sV\u53eb
p339
L3L
sV\u6559
p340
L3L
sV\u7ec8
p341
L5L
sV\u4e8e
p342
L8L
sV\u54ea
p343
L2L
sV\u54fc
p344
L1L
sV\u54e5
p345
L1L
sV\u6b4c
p346
L2L
sV\u513f
p347
L3L
sV 
p348
L6L
sV\u65e9
p349
L4L
sV\u6761
p350
L3L
sV\u957f
p351
L5L
sV\u8fab
p352
L5L
sV\u5316
p353
L2L
sV\u8d39
p354
L6L
sV\u6d17
p355
L1L
sV\u8138
p356
L2L
sV\u68a2
p357
L1L
sV\u8c61
p358
L7L
sV\u6a61
p359
L1L
sV\u76ae
p360
L1L
sV\u7b4b
p361
L1L
sV\u540e
p362
L6L
sV\u6298
p363
L1L
sV\u62c6
p364
L1L
sV\u6563
p365
L3L
sV\u7528
p366
L5L
sV\u6728
p367
L2L
sV\u68b3
p368
L2L
sV\u5934
p369
L8L
sV\u53d1
p370
L7L
sV\u901a
p371
L5L
sV\u987a
p372
L1L
sV\u5927
p373
L14L
sV\u80a1
p374
L2L
sV\u4e09
p375
L3L
sV\u6f2b
p376
L3L
sV\u6162
p377
L2L
sV\u7f16
p378
L2L
sV\u9e1f
p379
L1L
sV\u6e9c
p380
L1L
sV\u503c
p381
L2L
sV\u76f4
p382
L3L
sV\u8170
p383
L1L
sV\u9ec4
p384
L3L
sV\u91cd
p385
L4L
sV\u677f
p386
L1L
sV\u5b98
p387
L1L
sV\u7ba1
p388
L3L
sV\u522e
p389
L1L
sV\u5e45
p390
L3L
sV\u526f
p391
L1L
sV\u4f3c
p392
L2L
sV\u8fd8
p393
L5L
sV\u6e05
p394
L5L
sV\u695a
p395
L1L
sV\u76ee
p396
L6L
sV\u8a00
p397
L1L
sV\u4fe9
p398
L1L
sV\u8bed
p399
L1L
sV\u53e5
p400
L1L
sV\u4f60
p401
L1L
sV\u542c
p402
L2L
sV\u767d
p403
L2L
sV\u4f4d
p404
L4L
sV\u80f8
p405
L2L
sV\u524d
p406
L9L
sV\u6821
p407
L3L
sV\u5fbd
p408
L3L
sV\u8c08
p409
L3L
sV\u5f80
p410
L7L
sV\u4e8b
p411
L5L
sV\u5341
p412
L4L
sV\u611f
p413
L4L
sV\u6094
p414
L1L
sV\u8bf2
p415
L1L
sV\u7262
p416
L1L
sV\u8bb0
p417
L2L
sV\u6653
p418
L1L
sV\u7ea2
p419
L1L
sV\u85c9
p420
L1L
sV\u7c4d
p421
L1L
sV\u8d2f
p422
L1L
sV\u5317
p423
L2L
sV\u4eac
p424
L1L
sV\u8857
p425
L1L
sV\u8f66
p426
L6L
sV\u8f86
p427
L1L
sV\u5ddd
p428
L1L
sV\u68ad
p429
L2L
sV\u51c4
p430
L1L
sV\u5386
p431
L5L
sV\u5389
p432
L1L
sV\u523a
p433
L1L
sV\u8033
p434
L2L
sV\u771f
p435
L7L
sV\u5bb3
p436
L1L
sV\u6015
p437
L3L
sV\u91ce
p438
L1L
sV\u5916
p439
L4L
sV\u8003
p440
L4L
sV\u67e5
p441
L1L
sV\u559c
p442
L1L
sV\u671b
p443
L3L
sV\u6781
p444
L2L
sV\u5357
p445
L3L
sV\u52ff
p446
L2L
sV\u5306
p447
L2L
sV\u6696
p448
L1L
sV\u5f00
p449
L8L
sV\u8eaf
p450
L1L
sV\u9a71
p451
L1L
sV\u6d77
p452
L3L
sV\u6ee8
p453
L1L
sV\u6e21
p454
L2L
sV\u5047
p455
L2L
sV\u6751
p456
L1L
sV\u8fd9
p457
L12L
sV\u7eb7
p458
L1L
sV\u7e41
p459
L1L
sV\u666f
p460
L5L
sV\u6f66
p461
L1L
sV\u7f2d
p462
L1L
sV\u4e71
p463
L2L
sV\u7bc7
p464
L3L
sV\u6587
p465
L8L
sV\u7ae0
p466
L6L
sV\u7f57
p467
L2L
sV\u4f8b
p468
L1L
sV\u73b0
p469
L9L
sV\u7f3a
p470
L1L
sV\u6790
p471
L3L
sV\u75c5
p472
L4L
sV\u4f4f
p473
L1L
sV\u9662
p474
L1L
sV\u6fc0
p475
L2L
sV\u53ca
p476
L4L
sV\u5feb
p477
L2L
sV\u7070
p478
L2L
sV\u610e
p479
L1L
sV\u6062
p480
L2L
sV\u590d
p481
L2L
sV\u5065
p482
L1L
sV\u5eb7
p483
L1L
sV\u5199
p484
L1L
sV\u904d
p485
L3L
sV\u8bf5
p486
L2L
sV\u9882
p487
L2L
sV\u4ed6
p488
L11L
sV\u8854
p489
L1L
sV\u53e3
p490
L1L
sV\u6253
p491
L2L
sV\u626b
p492
L1L
sV\u536b
p493
L1L
sV\u665a
p494
L2L
sV\u70e7
p495
L1L
sV\u500d
p496
L2L
sV\u6574
p497
L2L
sV\u5bb5
p498
L1L
sV\u738b
p499
L2L
sV\u6027
p500
L2L
sV\u683c
p501
L1L
sV\u6e29
p502
L2L
sV\u548c
p503
L11L
sV\u6001
p504
L2L
sV\u5ea6
p505
L4L
sV\u7231
p506
L1L
sV\u853c
p507
L1L
sV\u8bc4
p508
L1L
sV\u674e
p509
L1L
sV\u73cd
p510
L2L
sV\u8def
p511
L2L
sV\u8fdc
p512
L1L
sV\u4e25
p513
L2L
sV\u5bd2
p514
L1L
sV\u9177
p515
L1L
sV\u7f72
p516
L2L
sV\u6691
p517
L1L
sV\u504f
p518
L2L
sV\u76db
p519
L1L
sV\u4ea7
p520
L5L
sV\u836f
p521
L1L
sV\u8d22
p522
L1L
sV\u6750
p523
L1L
sV\u52e4
p524
L2L
sV\u57a6
p525
L2L
sV\u6073
p526
L2L
sV\u9ed8
p527
L3L
sV\u95fb
p528
L2L
sV\u4e16
p529
L3L
sV\u4e07
p530
L2L
sV\u7269
p531
L4L
sV\u79e6
p532
L2L
sV\u5175
p533
L2L
sV\u9a6c
p534
L3L
sV\u7ef4
p535
L3L
sV\u60df
p536
L2L
sV\u5999
p537
L2L
sV\u8096
p538
L1L
sV\u6a21
p539
L1L
sV\u62df
p540
L1L
sV\u6392
p541
L1L
sV\u96d5
p542
L2L
sV\u5851
p543
L2L
sV\u53f2
p544
L3L
sV\u7edd
p545
L3L
sV\u4ec5
p546
L4L
sV\u78a7
p547
L2L
sV\u5cad
p548
L1L
sV\u4f0f
p549
L2L
sV\u6797
p550
L2L
sV\u6d9b
p551
L2L
sV\u4eff
p552
L1L
sV\u594f
p553
L2L
sV\u54cd
p554
L4L
sV\u652f
p555
L1L
sV\u4ea4
p556
L4L
sV\u4e50
p557
L1L
sV\u7cfb
p558
L2L
sV\u821f
p559
L1L
sV\u62c4
p560
L1L
sV\u634c
p561
L1L
sV\u62d0
p562
L1L
sV\u4ed7
p563
L1L
sV\u8e0f
p564
L1L
sV\u82d4
p565
L1L
sV\u85d3
p566
L1L
sV\u5ba2
p567
L3L
sV\u5021
p568
L1L
sV\u7ea6
p569
L1L
sV\u53cd
p570
L3L
sV\u8c6a
p571
L1L
sV\u6beb
p572
L1L
sV\u5236
p573
L1L
sV\u6d6a
p574
L3L
sV\u5e9f
p575
L4L
sV\u8d44
p576
L2L
sV\u6e90
p577
L2L
sV\u8feb
p578
L1L
sV\u6025
p579
L4L
sV\u5f85
p580
L3L
sV\u60f3
p581
L4L
sV\u77e5
p582
L4L
sV\u9053
p583
L4L
sV\u7a76
p584
L3L
sV\u7adf
p585
L1L
sV\u8c01
p586
L1L
sV\u8d62
p587
L2L
sV\u6700
p588
L2L
sV\u80dc
p589
L4L
sV\u5229
p590
L3L
sV\u6309
p591
L3L
sV\u7167
p592
L2L
sV\u7ea7
p593
L2L
sV\u5e03
p594
L2L
sV\u90e8
p595
L4L
sV\u7ec4
p596
L1L
sV\u7ec7
p597
L1L
sV\u89c2
p598
L4L
sV\u6469
p599
L1L
sV\u6620
p600
L3L
sV\u5f71
p601
L1L
sV\u7247
p602
L2L
sV\u5c55
p603
L1L
sV\u5468
p604
L1L
sV\u6069
p605
L1L
sV\u8bc6
p606
L1L
sV\u8892
p607
L1L
sV\u5766
p608
L1L
sV\u8bda
p609
L1L
sV\u63a8
p610
L1L
sV\u7f6e
p611
L2L
sV\u8179
p612
L1L
sV\u65c5
p613
L7L
sV\u5c40
p614
L2L
sV\u89c4
p615
L2L
sV\u5b9a
p616
L1L
sV\u4f9b
p617
L1L
sV\u52a1
p618
L2L
sV\u59ff
p619
L2L
sV\u91c7
p620
L4L
sV\u6d3b
p621
L5L
sV\u9879
p622
L1L
sV\u5546
p623
L1L
sV\u54c1
p624
L2L
sV\u5b9e
p625
L2L
sV\u4f4e
p626
L4L
sV\u6f14
p627
L2L
sV\u8868
p628
L1L
sV\u7cbe
p629
L4L
sV\u5168
p630
L3L
sV\u573a
p631
L4L
sV\u66b4
p632
L1L
sV\u7206
p633
L1L
sV\u559d
p634
L1L
sV\u87ba
p635
L1L
sV\u837c
p636
L2L
sV\u8336
p637
L1L
sV\u6c64
p638
L1L
sV\u6c5f
p639
L2L
sV\u5a9a
p640
L1L
sV\u5757
p641
L1L
sV\u7c7b
p642
L1L
sV\u62d4
p643
L2L
sV\u8403
p644
L1L
sV\u7816
p645
L1L
sV,
p646
L3L
sV\u5b81
p647
L2L
sV\u613f
p648
L1L
sV\u5efa
p649
L6L
sV\u7b51
p650
L4L
sV\u9500
p651
L1L
sV\u533f
p652
L1L
sV\u8ff9
p653
L5L
sV\u80af
p654
L3L
sV\u7eca
p655
L1L
sV\u8de4
p656
L1L
sV.
p657
L2L
sV\u5353
p658
L1L
sV\u606f
p659
L2L
sV\u51b6
p660
L1L
sV\u70bc
p661
L1L
sV\u624d
p662
L4L
sV\u83b7
p663
L5L
sV\u68f5
p664
L1L
sV\u593a
p665
L2L
sV\u91d1
p666
L3L
sV\u73e0
p667
L1L
sV\u9488
p668
L2L
sV\u782d
p669
L2L
sV\u5f0a
p670
L2L
sV\u8150
p671
L3L
sV\u8d25
p672
L3L
sV\u7f18
p673
L2L
sV\u5e02
p674
L2L
sV\u5b89
p675
L4L
sV\u53f8
p676
L1L
sV\u8a89
p677
L2L
sV\u8f83
p678
L1L
sV\u8fd1
p679
L4L
sV\u4ee3
p680
L2L
sV\u8584
p681
L1L
sV\u535a
p682
L1L
sV\u9986
p683
L1L
sV\u95e8
p684
L4L
sV\u6b22
p685
L2L
sV\u8fce
p686
L1L
sV\u5bbe
p687
L1L
sV\u5e3d
p688
L1L
sV\u4f69
p689
L1L
sV\u795e
p690
L5L
sV\u6296
p691
L1L
sV\u64de
p692
L1L
sV\u5411
p693
L1L
sV\u5e0c
p694
L1L
sV\u671f
p695
L3L
sV\u53d8
p696
L2L
sV\u4ee5
p697
L6L
sV\u514d
p698
L1L
sV\u818f
p699
L1L
sV\u8093
p700
L1L
sV\u9632
p701
L1L
sV\u6b62
p702
L2L
sV\u758f
p703
L1L
sV\u5ffd
p704
L1L
sV\u672a
p705
L1L
sV\u7b79
p706
L2L
sV\u8c0b
p707
L1L
sV\u7ef8
p708
L1L
sV\u7f2a
p709
L1L
sV\u5c3d
p710
L1L
sV\u52b2
p711
L3L
sV\u6b21
p712
L1L
sV\u6ca1
p713
L5L
sV\u4e27
p714
L1L
sV\u6297
p715
L1L
sV\u65e5
p716
L2L
sV\u6218
p717
L1L
sV\u5e7f
p718
L1L
sV\u6c11
p719
L3L
sV\u7fa4
p720
L1L
sV\u4f17
p721
L1L
sV\u5bc7
p722
L1L
sV\u5c48
p723
L1L
sV\u9976
p724
L1L
sV\u6320
p725
L1L
sV\u6597
p726
L2L
sV\u8e81
p727
L2L
sV\u71e5
p728
L1L
sV\u89c9
p729
L2L
sV\u9002
p730
L2L
sV\u521d
p731
L1L
sV\u5c18
p732
L1L
sV\u5207
p733
L3L
sV\u9c9c
p734
L1L
sV\u5947
p735
L3L
sV\u964c
p736
L1L
sV\u8ff7
p737
L1L
sV\u7f54
p738
L1L
sV\u60d8
p739
L1L
sV\u79cd
p740
L8L
sV\u6726
p741
L1L
sV\u61f5
p742
L1L
sV\u61c2
p743
L1L
sV\u79f0
p744
L1L
sV\u5b69
p745
L1L
sV\u719f
p746
L1L
sV\u800c
p747
L7L
sV\u524c
p748
L1L
sV\u8f89
p749
L2L
sV\u5706
p750
L2L
sV\u9006
p751
L1L
sV\u97f3
p752
L1L
sV\u987b
p753
L5L
sV\u9700
p754
L2L
sV\u5bdf
p755
L1L
sV\u989c
p756
L1L
sV\u8272
p757
L2L
sV\u82cf
p758
L1L
sV\u7f6a
p759
L1L
sV\u72af
p760
L2L
sV\u7ad9
p761
L3L
sV\u552e
p762
L1L
sV\u7968
p763
L2L
sV\u5de6
p764
L1L
sV\u987e
p765
L1L
sV\u53f3
p766
L1L
sV\u76fc
p767
L1L
sV\u9003
p768
L2L
sV\u201c
p769
L4L
sV\u775b
p770
L2L
sV\u201d
p771
L4L
sV\u679c
p772
L3L
sV\u8d1f
p773
L1L
sV\u6848
p774
L1L
sV\u7f51
p775
L1L
sV\u8f91
p776
L1L
sV\u8d5b
p777
L1L
sV\u59cb
p778
L2L
sV\u8fd0
p779
L1L
sV\u8dd1
p780
L1L
sV\u7d27
p781
L1L
sV\u5f20
p782
L4L
sV\u51c6
p783
L1L
sV\u5907
p784
L2L
sV\u94fa
p785
L1L
sV\u5fc5
p786
L3L
sV\u8d2d
p787
L1L
sV\u4e70
p788
L1L
sV\u6df1
p789
L1L
sV\u7bee
p790
L1L
sV\u84dd
p791
L1L
sV\u7a7a
p792
L1L
sV\u6302
p793
L1L
sV\u8f6e
p794
L2L
sV\u6708
p795
L1L
sV\u56fd
p796
L5L
sV\u5bfa
p797
L1L
sV\u5e99
p798
L1L
sV\u6d2a
p799
L1L
sV\u5b8f
p800
L1L
sV\u7f8e
p801
L6L
sV\u5de7
p802
L1L
sV\u601d
p803
L3L
sV\u8c13
p804
L2L
sV\u9b3c
p805
L1L
sV\u65a7
p806
L1L
sV\u5348
p807
L1L
sV\u98df
p808
L2L
sV\u5802
p809
L1L
sV\u996d
p810
L2L
sV\u684c
p811
L2L
sV\u5269
p812
L2L
sV\u83dc
p813
L1L
sV\u4e1a
p814
L2L
sV\u5b8c
p815
L1L
sV\u7236
p816
L3L
sV\u4eb2
p817
L6L
sV\u5c45
p818
L2L
sV\u533a
p819
L3L
sV\u505c
p820
L2L
sV\u9760
p821
L1L
sV\u53e4
p822
L3L
sV\u697c
p823
L2L
sV\u623f
p824
L1L
sV\u8fb9
p825
L1L
sV\u94c3
p826
L1L
sV\u5e74
p827
L2L
sV\u9f84
p828
L1L
sV\u8bf7
p829
L1L
sV\uff01
p830
L1L
sV\u6500
p831
L1L
sV\u4e60
p832
L1L
sV\u79ef
p833
L2L
sV\u7a0b
p834
L2L
sV\u6377
p835
L1L
sV\u5f84
p836
L1L
sV\u5faa
p837
L1L
sV\u7eea
p838
L1L
sV\u5e8f
p839
L1L
sV\u6e10
p840
L1L
sV\u8dec
p841
L1L
sV\u6b65
p842
L3L
sV\u5343
p843
L1L
sV\u793c
p844
L3L
sV\u5c1a
p845
L1L
sV\u9022
p846
L1L
sV\u751a
p847
L1L
sV\u81f3
p848
L2L
sV\u5708
p849
L1L
sV\u53c8
p850
L5L
sV\u602a
p851
L1L
sV\u5584
p852
L3L
sV\u54c9
p853
L2L
sV\u6551
p854
L1L
sV\u547d
p855
L1L
sV\u9020
p856
L2L
sV\u4e03
p857
L1L
sV\u56fe
p858
L2L
sV\u5c60
p859
L1L
sV\u529b
p860
L3L
sV\u7d20
p861
L1L
sV\u8d28
p862
L2L
sV\u666e
p863
L1L
sV\u5f15
p864
L1L
sV\u51e0
p865
L1L
sV\u676f
p866
L1L
sV\u85aa
p867
L1L
sV\u8ba1
p868
L1L
sV\u6d4e
p869
L1L
sV\u680f
p870
L1L
sV\u6807
p871
L1L
sV\u5fd7
p872
L1L
sV\u6539
p873
L3L
sV\u592e
p874
L1L
sV\u79c0
p875
L2L
sV\u4efb
p876
L3L
sV\u6c61
p877
L1L
sV\u67d3
p878
L1L
sV\u4f11
p879
L2L
sV\u95f2
p880
L1L
sV\u659c
p881
L1L
sV\u90aa
p882
L2L
sV\u6829
p883
L2L
sV\u77f3
p884
L2L
sV\u51cb
p885
L1L
sV\u7559
p886
L1L
sV\u8058
p887
L1L
sV\u9a8b
p888
L1L
sV\u6000
p889
L1L
sV\u9001
p890
L1L
sV\u8d35
p891
L2L
sV\u8774
p892
L1L
sV\u8776
p893
L1L
sV\u72ac
p894
L1L
sV\u5973
p895
L1L
sV\u547c
p896
L1L
sV\u9e4a
p897
L1L
sV\u96c0
p898
L1L
sV\u8dc3
p899
L1L
sV\u5acc
p900
L1L
sV\u5435
p901
L1L
sV\u5219
p902
L1L
sV\u5f04
p903
L1L
sV\u810f
p904
L1L
sV\u607c
p905
L1L
sV\u9a84
p906
L1L
sV\u9633
p907
L2L
sV\u66dd
p908
L1L
sV\u6652
p909
L1L
sV\u7275
p910
L1L
sV\u725b
p911
L1L
sV\u5830
p912
L1L
sV\u65d7
p913
L1L
sV\u9f13
p914
L1L
sV\u8549
p915
L1L
sV\u6175
p916
L1L
sV\u5026
p917
L1L
sV\u77dc
p918
L1L
sV\u7261
p919
L1L
sV\u4e39
p920
L1L
sV\u8037
p921
L1L
sV\u62c9
p922
L1L
sV\u9885
p923
L1L
sV\u4ef7
p924
L1L
sV\u6307
p925
L2L
sV\u6570
p926
L1L
sV\u663e
p927
L2L
sV\u6da8
p928
L2L
sV\u6536
p929
L2L
sV\u5ead
p930
L1L
sV\u8d27
p931
L1L
sV\u81a8
p932
L1L
sV\u80c0
p933
L1L
sV\u538b
p934
L1L
sV\u7126
p935
L1L
sV\u707c
p936
L1L
sV\u83ab
p937
L2L
sV\u66fc
p938
L1L
sV\u5ef6
p939
L1L
sV\u523b
p940
L1L
sV\u6d88
p941
L2L
sV\u8680
p942
L1L
sV\u793e
p943
L1L
sV\u6839
p944
L1L
sV\u57fa
p945
L1L
sV\u8695
p946
L1L
sV\u826f
p947
L1L
sV\u9677
p948
L1L
sV\u6076
p949
L1L
sV\u6f20
p950
L1L
sV\u9ebb
p951
L1L
sV\u821e
p952
L1L
sV\u5f1f
p953
L2L
sV\u5e76
p954
L1L
sV\u8302
p955
L1L
sV\u59d0
p956
L2L
sV\u9526
p957
L1L
sV\u6dfb
p958
L1L
sV\u6bcd
p959
L2L
sV\u4e1d
p960
L1L
sV\u62c5
p961
L1L
sV\u5fe7
p962
L1L
sV\u70df
p963
L1L
sV\u4e91
p964
L4L
sV\u9769
p965
L1L
sV\u4f01
p966
L1L
sV\u65ad
p967
L1L
sV\u5bfb
p968
L1L
sV\u6c42
p969
L1L
sV\u50f5
p970
L1L
sV\u58a8
p971
L1L
sV\u5b88
p972
L1L
sV\u6e17
p973
L1L
sV\u60e8
p974
L1L
sV\u906d
p975
L1L
sV\u9676
p976
L1L
sV\u6c70
p977
L1L
sV\u73ed
p978
L1L
sV\u77a7
p979
L1L
sV\u5a67
p980
L1L
sV\u9753
p981
L1L
sV\u59b9
p982
L1L
sV\u7ed3
p983
L1L
sV\u5bfc
p984
L1L
sV\u81f4
p985
L1L
sV\u9a82
p986
L1L
sV\u5dcd
p987
L1L
sV\u5ce8
p988
L1L
sV\u7279
p989
L1L
sV\u5cf0
p990
L1L
sV\u82cd
p991
L1L
sV\u677e
p992
L1L
sV\u6cc9
p993
L1L
sV\u6ce2
p994
L1L
sV\u6ed4
p995
L1L
sV\u6127
p996
L1L
sV\u7403
p997
L1L
sV\u5408
p998
L2L
sV\u80a5
p999
L1L
sV\u8bbe
p1000
L1L
sV\u7701
p1001
L1L
sV\u67a2
p1002
L1L
sV\u7ebd
p1003
L1L
sV\u66f4
p1004
L1L
sV\u52a0
p1005
L1L
sV\u51f8
p1006
L1L
sV\u52a9
p1007
L1L
sV\u7ade
p1008
L2L
sV\u916c
p1009
L1L
sV\u8054
p1010
L1L
sV\u9a7b
p1011
L1L
sV\u7bad
p1012
L1L
sV\u5251
p1013
L1L
sV\u5f29
p1014
L1L
sV\u7f13
p1015
L1L
sV\u51b2
p1016
L1L
sV\u53cc
p1017
L1L
sV\u5224
p1018
L1L
sV\u9009
p1019
L2L
sV\u53d6
p1020
L1L
sV\u6bb5
p1021
L1L
sV\u62e2
p1022
L1L
sV\u7b3c
p1023
L1L
sV\u7edc
p1024
L1L
sV\u6cd5
p1025
L1L
sV\u803b
p1026
L1L
sV\u6545
p1027
L1L
sV\u8fc5
p1028
L1L
sV\u901f
p1029
L1L
sV\u8d76
p1030
L1L
sV\u8d74
p1031
L1L
sV\u9547
p1032
L1L
sV\u6325
p1033
L1L
sV\u56f0
p1034
L1L
sV\u4e95
p1035
L1L
sV\u77ff
p1036
L1L
sV\u8131
p1037
L1L
sV\u79bb
p1038
L2L
sV\u5371
p1039
L1L
sV\u9669
p1040
L1L
sV\u9000
p1041
L1L
sV\u892a
p1042
L1L
sV\u711a
p1043
L1L
sV\u5f81
p1044
L1L
sV\u53f7
p1045
L2L
sV\u5b57
p1046
L1L
sV\u5377
p1047
L1L
sV\u57cb
p1048
L1L
sV\u7089
p1049
L1L
sV\u55d1
p1050
L1L
sV\u62bd
p1051
L1L
sV\u535c
p1052
L1L
sV\u5409
p1053
L1L
sV\u51f6
p1054
L1L
sV\u8d1d
p1055
L1L
sV\u807f
p1056
L1L
sV\u94ed
p1057
L1L
sV\u6784
p1058
L1L
sV\u521b
p1059
L1L
sV\u68af
p1060
L1L
sV\u8fde
p1061
L1L
sV\u6362
p1062
L1L
sV\u5e7b
p1063
L1L
sV\u6d4b
p1064
L1L
sV\u89d2
p1065
L1L
sV\u5c04
p1066
L1L
sV\u5370
p1067
L1L
sV\u4e3d
p1068
L1L
sV\u753b
p1069
L1L
sV\u53d7
p1070
L1L
sV\u5185
p1071
L1L
sV\u5173
p1072
L1L
sV\u897f
p1073
L4L
sV\u590f
p1074
L3L
sV\u9675
p1075
L2L
sV3
p1076
L1L
sV\u9057
p1077
L3L
sV\u6398
p1078
L1L
sV\u5b58
p1079
L2L
sV\u5be5
p1080
L1L
sV\u82e5
p1081
L1L
sV\u8fb0
p1082
L1L
sV\u6668
p1083
L1L
sV\u661f
p1084
L1L
sV\u672f
p1085
L3L
sV\u754c
p1086
L1L
sV\u7814
p1087
L2L
sV\u8005
p1088
L1L
sV\u7aef
p1089
L1L
sV\u566a
p1090
L1L
sV\u79d1
p1091
L1L
sV"
p1092
L2L
sV\u8ffd
p1093
L1L
sV\u4ea6
p1094
L1L
sV\u4e1c
p1095
L1L
sV\u62fc
p1096
L1L
sV\u51d1
p1097
L1L
sV\u4e30
p1098
L1L
sV\u5bcc
p1099
L1L
sV\u541e
p1100
L1L
sV\u57ce
p1101
L1L
sV\u78c5
p1102
L1L
sV\u7934
p1103
L1L
sV\u7687
p1104
L1L
sV\u52c7
p1105
L1L
sV\u6842
p1106
L1L
sV\u7b49
p1107
L1L
stp1108
Rp1109
.